
megasquirt.elf:     file format elf32-avr

Sections:
Idx Name          Size      VMA       LMA       File off  Algn
  0 .data         00000002  00800100  00001904  000019b8  2**0
                  CONTENTS, ALLOC, LOAD, DATA
  1 .text         00001904  00000000  00000000  000000b4  2**1
                  CONTENTS, ALLOC, LOAD, READONLY, CODE
  2 .bss          0000016c  00800102  00800102  000019ba  2**0
                  ALLOC
  3 .eeprom       0000009f  00810000  00810000  000019ba  2**0
                  CONTENTS, ALLOC, LOAD, DATA
  4 .stab         00000948  00000000  00000000  00001a5c  2**2
                  CONTENTS, READONLY, DEBUGGING
  5 .stabstr      000001af  00000000  00000000  000023a4  2**0
                  CONTENTS, READONLY, DEBUGGING

Disassembly of section .text:

00000000 <__vectors>:
       0:	0c 94 4a 02 	jmp	0x494	; 0x494 <__ctors_end>
       4:	0c 94 a5 09 	jmp	0x134a	; 0x134a <__vector_1>
       8:	0c 94 67 02 	jmp	0x4ce	; 0x4ce <__bad_interrupt>
       c:	0c 94 67 02 	jmp	0x4ce	; 0x4ce <__bad_interrupt>
      10:	0c 94 67 02 	jmp	0x4ce	; 0x4ce <__bad_interrupt>
      14:	0c 94 67 02 	jmp	0x4ce	; 0x4ce <__bad_interrupt>
      18:	0c 94 67 02 	jmp	0x4ce	; 0x4ce <__bad_interrupt>
      1c:	0c 94 67 02 	jmp	0x4ce	; 0x4ce <__bad_interrupt>
      20:	0c 94 67 02 	jmp	0x4ce	; 0x4ce <__bad_interrupt>
      24:	0c 94 67 02 	jmp	0x4ce	; 0x4ce <__bad_interrupt>
      28:	0c 94 67 02 	jmp	0x4ce	; 0x4ce <__bad_interrupt>
      2c:	0c 94 67 02 	jmp	0x4ce	; 0x4ce <__bad_interrupt>
      30:	0c 94 67 02 	jmp	0x4ce	; 0x4ce <__bad_interrupt>
      34:	0c 94 67 02 	jmp	0x4ce	; 0x4ce <__bad_interrupt>
      38:	0c 94 56 08 	jmp	0x10ac	; 0x10ac <__vector_14>
      3c:	0c 94 67 02 	jmp	0x4ce	; 0x4ce <__bad_interrupt>
      40:	0c 94 67 02 	jmp	0x4ce	; 0x4ce <__bad_interrupt>
      44:	0c 94 67 02 	jmp	0x4ce	; 0x4ce <__bad_interrupt>
      48:	0c 94 6c 04 	jmp	0x8d8	; 0x8d8 <__vector_18>
      4c:	0c 94 a2 04 	jmp	0x944	; 0x944 <__vector_19>
      50:	0c 94 67 02 	jmp	0x4ce	; 0x4ce <__bad_interrupt>
      54:	0c 94 d8 02 	jmp	0x5b0	; 0x5b0 <__vector_21>
      58:	0c 94 d7 0b 	jmp	0x17ae	; 0x17ae <__vector_22>
      5c:	0c 94 67 02 	jmp	0x4ce	; 0x4ce <__bad_interrupt>
      60:	0c 94 67 02 	jmp	0x4ce	; 0x4ce <__bad_interrupt>
      64:	0c 94 67 02 	jmp	0x4ce	; 0x4ce <__bad_interrupt>
      68:	33 03       	mulsu	r19, r19
      6a:	38 03       	fmul	r19, r16
      6c:	63 03       	mulsu	r22, r19
      6e:	66 03       	mulsu	r22, r22
      70:	69 03       	fmul	r22, r17
      72:	6c 03       	fmul	r22, r20
      74:	6f 03       	fmul	r22, r23
      76:	72 03       	mulsu	r23, r18
      78:	75 03       	mulsu	r23, r21
      7a:	78 03       	fmul	r23, r16
      7c:	7b 03       	fmul	r23, r19
      7e:	7e 03       	fmul	r23, r22
      80:	81 03       	fmuls	r16, r17
      82:	84 03       	fmuls	r16, r20
      84:	87 03       	fmuls	r16, r23
      86:	8a 03       	fmulsu	r16, r18
      88:	8d 03       	fmulsu	r16, r21
      8a:	90 03       	fmuls	r17, r16
      8c:	93 03       	fmuls	r17, r19
      8e:	96 03       	fmuls	r17, r22
      90:	31 03       	mulsu	r19, r17
      92:	9b 03       	fmulsu	r17, r19

00000094 <THERMFACTOR>:
      94:	d2 ff ff ff ff ff ff ff ff ff ff ff ff ff ff ff     ................
      a4:	ff ff ff ff ff fe fa f6 f2 ee eb e7 e4 e1 de dc     ................
      b4:	d9 d6 d4 d1 cf cd cb c8 c6 c4 c2 c0 bf bd bb b9     ................
      c4:	b8 b6 b4 b3 b1 b0 ae ad ab aa a8 a7 a6 a4 a3 a2     ................
      d4:	a1 9f 9e 9d 9c 9b 99 98 97 96 95 94 93 92 91 90     ................
      e4:	8f 8e 8d 8c 8b 8a 89 88 87 86 85 84 83 82 82 81     ................
      f4:	80 7f 7e 7d 7c 7c 7b 7a 79 78 77 77 76 75 74 73     ..~}||{zyxwwvuts
     104:	73 72 71 70 70 6f 6e 6d 6d 6c 6b 6a 6a 69 68 67     srqpponmmlkjjihg
     114:	67 66 65 65 64 63 62 62 61 60 60 5f 5e 5d 5d 5c     gfeedcbba``_^]]\
     124:	5b 5b 5a 59 59 58 57 57 56 55 54 54 53 52 52 51     [[ZYYXWWVUTTSRRQ
     134:	50 50 4f 4e 4e 4d 4c 4b 4b 4a 49 49 48 47 47 46     PPONNMLKKJIIHGGF
     144:	45 44 44 43 42 42 41 40 3f 3f 3e 3d 3c 3c 3b 3a     EDDCBBA@??>=<<;:
     154:	39 39 38 37 36 36 35 34 33 32 31 31 30 2f 2e 2d     9987665432110/.-
     164:	2c 2c 2b 2a 29 28 27 26 25 24 23 22 21 20 1f 1e     ,,+*)('&%$#"! ..
     174:	1d 1c 1b 19 18 17 16 14 13 12 10 0f 0e 0c 0a 09     ................
     184:	07 05 03 01 00 00 00 00 00 00 00 00 00 00 00 d2     ................

00000194 <AIRDENFACTOR>:
     194:	64 2f 36 3a 3d 40 41 43 44 46 47 48 49 49 4a 4b     d/6:=@ACDFGHIIJK
     1a4:	4c 4c 4d 4d 4e 4e 4f 4f 50 50 51 51 52 52 52 53     LLMMNNOOPPQQRRRS
     1b4:	53 53 54 54 54 55 55 55 56 56 56 56 57 57 57 57     SSTTTUUUVVVVWWWW
     1c4:	58 58 58 58 59 59 59 59 59 5a 5a 5a 5a 5a 5b 5b     XXXXYYYYYZZZZZ[[
     1d4:	5b 5b 5b 5c 5c 5c 5c 5c 5d 5d 5d 5d 5d 5d 5e 5e     [[[\\\\\]]]]]]^^
     1e4:	5e 5e 5e 5e 5f 5f 5f 5f 5f 5f 60 60 60 60 60 60     ^^^^______``````
     1f4:	61 61 61 61 61 61 61 62 62 62 62 62 62 62 63 63     aaaaaaabbbbbbbcc
     204:	63 63 63 63 63 64 64 64 64 64 64 64 65 65 65 65     cccccdddddddeeee
     214:	65 65 65 66 66 66 66 66 66 66 67 67 67 67 67 67     eeefffffffgggggg
     224:	67 68 68 68 68 68 68 68 69 69 69 69 69 69 69 6a     ghhhhhhhiiiiiiij
     234:	6a 6a 6a 6a 6a 6a 6b 6b 6b 6b 6b 6b 6c 6c 6c 6c     jjjjjjkkkkkkllll
     244:	6c 6c 6c 6d 6d 6d 6d 6d 6d 6e 6e 6e 6e 6e 6e 6f     lllmmmmmmnnnnnno
     254:	6f 6f 6f 6f 70 70 70 70 70 71 71 71 71 71 72 72     oooopppppqqqqqrr
     264:	72 72 72 73 73 73 73 74 74 74 74 75 75 75 75 76     rrrssssttttuuuuv
     274:	76 76 77 77 77 78 78 78 79 79 79 7a 7a 7b 7b 7c     vvwwwxxxyyyzz{{|
     284:	7c 7d 7d 7e 7f 80 80 81 82 83 85 86 88 8b 8f 64     |}}~...........d

00000294 <KPAFACTOR4250>:
     294:	64 64 21 22 23 23 24 25 26 27 28 29 2a 2b 2c 2d     dd!"##$%&'()*+,-
     2a4:	2e 2f 30 31 32 33 34 34 35 36 37 38 39 3a 3b 3c     ./01234456789:;<
     2b4:	3d 3e 3f 40 41 42 43 44 45 45 46 47 48 49 4a 4b     =>?@ABCDEEFGHIJK
     2c4:	4c 4d 4e 4f 50 51 52 53 54 55 56 56 57 58 59 5a     LMNOPQRSTUVVWXYZ
     2d4:	5b 5c 5d 5e 5f 60 61 62 63 64 65 66 67 67 68 69     [\]^_`abcdefgghi
     2e4:	6a 6b 6c 6d 6e 6f 70 71 72 73 74 75 76 77 78 79     jklmnopqrstuvwxy
     2f4:	79 7a 7b 7c 7d 7e 7f 80 81 82 83 84 85 86 87 88     yz{|}~..........
     304:	89 8a 8a 8b 8c 8d 8e 8f 90 91 92 93 94 95 96 97     ................
     314:	98 99 9a 9b 9b 9c 9d 9e 9f a0 a1 a2 a3 a4 a5 a6     ................
     324:	a7 a8 a9 aa ab ac ac ad ae af b0 b1 b2 b3 b4 b5     ................
     334:	b6 b7 b8 b9 ba bb bc bd bd be bf c0 c1 c2 c3 c4     ................
     344:	c5 c6 c7 c8 c9 ca cb cc cd ce ce cf d0 d1 d2 d3     ................
     354:	d4 d5 d6 d7 d8 d9 da db dc dd de df e0 e0 e1 e2     ................
     364:	e3 e4 e5 e6 e7 e8 e9 ea eb ec ed ee ef f0 f1 f1     ................
     374:	f2 f3 f4 f5 f6 f7 f8 f9 fa fb fc fd fe ff ff ff     ................
     384:	ff ff ff ff ff ff ff ff ff ff ff ff ff ff ff 64     ...............d

00000394 <MATFACTOR>:
     394:	64 ff ff ff ff ff ff ff ff ff ff ff ff ff ff ff     d...............
     3a4:	ff ff ff ff ff fd f9 f5 f1 ee ea e7 e4 e1 de db     ................
     3b4:	d9 d6 d3 d1 cf cc ca c8 c6 c4 c2 c0 be bc bb b9     ................
     3c4:	b7 b6 b4 b2 b1 af ae ac ab a9 a8 a7 a5 a4 a3 a1     ................
     3d4:	a0 9f 9e 9d 9b 9a 99 98 97 96 95 94 93 91 90 8f     ................
     3e4:	8e 8d 8c 8b 8a 89 89 88 87 86 85 84 83 82 81 80     ................
     3f4:	7f 7f 7e 7d 7c 7b 7a 7a 79 78 77 76 76 75 74 73     ..~}|{zzyxwvvuts
     404:	72 72 71 70 6f 6f 6e 6d 6c 6c 6b 6a 69 69 68 67     rrqpoonmllkjiihg
     414:	66 66 65 64 63 63 62 61 61 60 5f 5f 5e 5d 5c 5c     ffedccbaa`__^]\\
     424:	5b 5a 5a 59 58 58 57 56 55 55 54 53 53 52 51 51     [ZZYXXWVUUTSSRQQ
     434:	50 4f 4e 4e 4d 4c 4c 4b 4a 4a 49 48 47 47 46 45     PONNMLLKJJIHGGFE
     444:	45 44 43 42 42 41 40 40 3f 3e 3d 3d 3c 3b 3a 3a     EDCBBA@@?>==<;::
     454:	39 38 37 36 36 35 34 33 32 32 31 30 2f 2e 2d 2d     987665432210/.--
     464:	2c 2b 2a 29 28 27 26 25 24 23 22 21 20 1f 1e 1d     ,+*)('&%$#"! ...
     474:	1c 1b 1a 18 17 16 15 13 12 11 0f 0e 0c 0a 09 07     ................
     484:	05 03 01 00 00 00 00 00 00 00 00 00 00 00 00 64     ...............d

00000494 <__ctors_end>:
     494:	11 24       	eor	r1, r1
     496:	1f be       	out	0x3f, r1	; 63
     498:	cf ef       	ldi	r28, 0xFF	; 255
     49a:	d8 e0       	ldi	r29, 0x08	; 8
     49c:	de bf       	out	0x3e, r29	; 62
     49e:	cd bf       	out	0x3d, r28	; 61

000004a0 <__do_copy_data>:
     4a0:	11 e0       	ldi	r17, 0x01	; 1
     4a2:	a0 e0       	ldi	r26, 0x00	; 0
     4a4:	b1 e0       	ldi	r27, 0x01	; 1
     4a6:	e4 e0       	ldi	r30, 0x04	; 4
     4a8:	f9 e1       	ldi	r31, 0x19	; 25
     4aa:	02 c0       	rjmp	.+4      	; 0x4b0 <__do_copy_data+0x10>
     4ac:	05 90       	lpm	r0, Z+
     4ae:	0d 92       	st	X+, r0
     4b0:	a2 30       	cpi	r26, 0x02	; 2
     4b2:	b1 07       	cpc	r27, r17
     4b4:	d9 f7       	brne	.-10     	; 0x4ac <__do_copy_data+0xc>

000004b6 <__do_clear_bss>:
     4b6:	12 e0       	ldi	r17, 0x02	; 2
     4b8:	a2 e0       	ldi	r26, 0x02	; 2
     4ba:	b1 e0       	ldi	r27, 0x01	; 1
     4bc:	01 c0       	rjmp	.+2      	; 0x4c0 <.do_clear_bss_start>

000004be <.do_clear_bss_loop>:
     4be:	1d 92       	st	X+, r1

000004c0 <.do_clear_bss_start>:
     4c0:	ae 36       	cpi	r26, 0x6E	; 110
     4c2:	b1 07       	cpc	r27, r17
     4c4:	e1 f7       	brne	.-8      	; 0x4be <.do_clear_bss_loop>
     4c6:	0e 94 0c 0b 	call	0x1618	; 0x1618 <main>
     4ca:	0c 94 80 0c 	jmp	0x1900	; 0x1900 <_exit>

000004ce <__bad_interrupt>:
     4ce:	0c 94 00 00 	jmp	0	; 0x0 <__vectors>

000004d2 <coolant_fan>:
     4d2:	90 91 ac 01 	lds	r25, 0x01AC
     4d6:	80 91 61 02 	lds	r24, 0x0261
     4da:	89 17       	cp	r24, r25
     4dc:	10 f4       	brcc	.+4      	; 0x4e2 <coolant_fan+0x10>
     4de:	28 9a       	sbi	0x05, 0	; 5
     4e0:	08 95       	ret
     4e2:	20 91 ac 01 	lds	r18, 0x01AC
     4e6:	80 91 61 02 	lds	r24, 0x0261
     4ea:	40 91 62 02 	lds	r20, 0x0262
     4ee:	30 e0       	ldi	r19, 0x00	; 0
     4f0:	90 e0       	ldi	r25, 0x00	; 0
     4f2:	84 1b       	sub	r24, r20
     4f4:	91 09       	sbc	r25, r1
     4f6:	82 17       	cp	r24, r18
     4f8:	93 07       	cpc	r25, r19
     4fa:	0c f0       	brlt	.+2      	; 0x4fe <coolant_fan+0x2c>
     4fc:	28 98       	cbi	0x05, 0	; 5
     4fe:	08 95       	ret

00000500 <check_fast_idle>:
     500:	0f 93       	push	r16
     502:	20 91 ac 01 	lds	r18, 0x01AC
     506:	80 91 48 02 	lds	r24, 0x0248
     50a:	30 e0       	ldi	r19, 0x00	; 0
     50c:	90 e0       	ldi	r25, 0x00	; 0
     50e:	05 97       	sbiw	r24, 0x05	; 5
     510:	28 17       	cp	r18, r24
     512:	39 07       	cpc	r19, r25
     514:	1c f4       	brge	.+6      	; 0x51c <check_fast_idle+0x1c>
     516:	2c 9a       	sbi	0x05, 4	; 5
     518:	83 e0       	ldi	r24, 0x03	; 3
     51a:	08 c0       	rjmp	.+16     	; 0x52c <check_fast_idle+0x2c>
     51c:	90 91 ac 01 	lds	r25, 0x01AC
     520:	80 91 48 02 	lds	r24, 0x0248
     524:	98 17       	cp	r25, r24
     526:	20 f0       	brcs	.+8      	; 0x530 <check_fast_idle+0x30>
     528:	2c 98       	cbi	0x05, 4	; 5
     52a:	82 e0       	ldi	r24, 0x02	; 2
     52c:	80 93 10 01 	sts	0x0110, r24
     530:	40 91 66 02 	lds	r20, 0x0266
     534:	20 91 65 02 	lds	r18, 0x0265
     538:	00 91 ac 01 	lds	r16, 0x01AC
     53c:	80 e0       	ldi	r24, 0x00	; 0
     53e:	6d ec       	ldi	r22, 0xCD	; 205
     540:	0e 94 3d 0a 	call	0x147a	; 0x147a <linear_interp>
     544:	80 93 0f 01 	sts	0x010F, r24
     548:	0f 91       	pop	r16
     54a:	08 95       	ret

0000054c <startADC>:
     54c:	10 92 13 01 	sts	0x0113, r1
     550:	80 e6       	ldi	r24, 0x60	; 96
     552:	80 93 7c 00 	sts	0x007C, r24
     556:	8f ec       	ldi	r24, 0xCF	; 207
     558:	80 93 7a 00 	sts	0x007A, r24
     55c:	08 95       	ret

0000055e <readADC>:
     55e:	97 e8       	ldi	r25, 0x87	; 135
     560:	90 93 7a 00 	sts	0x007A, r25
     564:	8f 70       	andi	r24, 0x0F	; 15
     566:	80 66       	ori	r24, 0x60	; 96
     568:	80 93 7c 00 	sts	0x007C, r24
     56c:	80 91 7a 00 	lds	r24, 0x007A
     570:	80 64       	ori	r24, 0x40	; 64
     572:	80 93 7a 00 	sts	0x007A, r24
     576:	80 91 7a 00 	lds	r24, 0x007A
     57a:	84 ff       	sbrs	r24, 4
     57c:	fc cf       	rjmp	.-8      	; 0x576 <readADC+0x18>
     57e:	80 91 7a 00 	lds	r24, 0x007A
     582:	80 61       	ori	r24, 0x10	; 16
     584:	80 93 7a 00 	sts	0x007A, r24
     588:	80 91 79 00 	lds	r24, 0x0079
     58c:	08 95       	ret

0000058e <initSensors>:
     58e:	1f 93       	push	r17
     590:	cf 93       	push	r28
     592:	df 93       	push	r29
     594:	c4 e1       	ldi	r28, 0x14	; 20
     596:	d1 e0       	ldi	r29, 0x01	; 1
     598:	10 e0       	ldi	r17, 0x00	; 0
     59a:	81 2f       	mov	r24, r17
     59c:	0e 94 af 02 	call	0x55e	; 0x55e <readADC>
     5a0:	89 93       	st	Y+, r24
     5a2:	1f 5f       	subi	r17, 0xFF	; 255
     5a4:	16 30       	cpi	r17, 0x06	; 6
     5a6:	c9 f7       	brne	.-14     	; 0x59a <initSensors+0xc>
     5a8:	df 91       	pop	r29
     5aa:	cf 91       	pop	r28
     5ac:	1f 91       	pop	r17
     5ae:	08 95       	ret

000005b0 <__vector_21>:
     5b0:	1f 92       	push	r1
     5b2:	0f 92       	push	r0
     5b4:	0f b6       	in	r0, 0x3f	; 63
     5b6:	0f 92       	push	r0
     5b8:	11 24       	eor	r1, r1
     5ba:	2f 93       	push	r18
     5bc:	3f 93       	push	r19
     5be:	8f 93       	push	r24
     5c0:	9f 93       	push	r25
     5c2:	af 93       	push	r26
     5c4:	bf 93       	push	r27
     5c6:	ef 93       	push	r30
     5c8:	ff 93       	push	r31
     5ca:	20 91 13 01 	lds	r18, 0x0113
     5ce:	82 2f       	mov	r24, r18
     5d0:	90 e0       	ldi	r25, 0x00	; 0
     5d2:	fc 01       	movw	r30, r24
     5d4:	ec 5e       	subi	r30, 0xEC	; 236
     5d6:	fe 4f       	sbci	r31, 0xFE	; 254
     5d8:	30 81       	ld	r19, Z
     5da:	8e 5f       	subi	r24, 0xFE	; 254
     5dc:	9e 4f       	sbci	r25, 0xFE	; 254
     5de:	dc 01       	movw	r26, r24
     5e0:	3c 93       	st	X, r19
     5e2:	80 91 79 00 	lds	r24, 0x0079
     5e6:	90 e0       	ldi	r25, 0x00	; 0
     5e8:	83 0f       	add	r24, r19
     5ea:	91 1d       	adc	r25, r1
     5ec:	96 95       	lsr	r25
     5ee:	87 95       	ror	r24
     5f0:	80 83       	st	Z, r24
     5f2:	82 2f       	mov	r24, r18
     5f4:	8f 5f       	subi	r24, 0xFF	; 255
     5f6:	80 93 13 01 	sts	0x0113, r24
     5fa:	86 30       	cpi	r24, 0x06	; 6
     5fc:	30 f0       	brcs	.+12     	; 0x60a <__vector_21+0x5a>
     5fe:	10 92 13 01 	sts	0x0113, r1
     602:	80 91 7a 00 	lds	r24, 0x007A
     606:	87 7f       	andi	r24, 0xF7	; 247
     608:	07 c0       	rjmp	.+14     	; 0x618 <__vector_21+0x68>
     60a:	87 70       	andi	r24, 0x07	; 7
     60c:	80 66       	ori	r24, 0x60	; 96
     60e:	80 93 7c 00 	sts	0x007C, r24
     612:	80 91 7a 00 	lds	r24, 0x007A
     616:	80 64       	ori	r24, 0x40	; 64
     618:	80 93 7a 00 	sts	0x007A, r24
     61c:	ff 91       	pop	r31
     61e:	ef 91       	pop	r30
     620:	bf 91       	pop	r27
     622:	af 91       	pop	r26
     624:	9f 91       	pop	r25
     626:	8f 91       	pop	r24
     628:	3f 91       	pop	r19
     62a:	2f 91       	pop	r18
     62c:	0f 90       	pop	r0
     62e:	0f be       	out	0x3f, r0	; 63
     630:	0f 90       	pop	r0
     632:	1f 90       	pop	r1
     634:	18 95       	reti

00000636 <codeVer>:
     636:	80 91 00 01 	lds	r24, 0x0100
     63a:	08 95       	ret

0000063c <testComm>:
     63c:	80 91 c9 01 	lds	r24, 0x01C9
     640:	90 91 ca 01 	lds	r25, 0x01CA
     644:	08 95       	ret

00000646 <sendRTvar>:
     646:	e8 2f       	mov	r30, r24
     648:	f0 e0       	ldi	r31, 0x00	; 0
     64a:	e6 31       	cpi	r30, 0x16	; 22
     64c:	f1 05       	cpc	r31, r1
     64e:	08 f0       	brcs	.+2      	; 0x652 <sendRTvar+0xc>
     650:	70 c0       	rjmp	.+224    	; 0x732 <sendRTvar+0xec>
     652:	ec 5c       	subi	r30, 0xCC	; 204
     654:	ff 4f       	sbci	r31, 0xFF	; 255
     656:	ee 0f       	add	r30, r30
     658:	ff 1f       	adc	r31, r31
     65a:	05 90       	lpm	r0, Z+
     65c:	f4 91       	lpm	r31, Z+
     65e:	e0 2d       	mov	r30, r0
     660:	09 94       	ijmp
     662:	82 e0       	ldi	r24, 0x02	; 2
     664:	08 95       	ret
     666:	80 91 c9 01 	lds	r24, 0x01C9
     66a:	90 91 ca 01 	lds	r25, 0x01CA
     66e:	08 95       	ret
     670:	60 91 b9 01 	lds	r22, 0x01B9
     674:	20 91 bf 01 	lds	r18, 0x01BF
     678:	86 2f       	mov	r24, r22
     67a:	90 e0       	ldi	r25, 0x00	; 0
     67c:	30 e0       	ldi	r19, 0x00	; 0
     67e:	ac 01       	movw	r20, r24
     680:	42 70       	andi	r20, 0x02	; 2
     682:	50 70       	andi	r21, 0x00	; 0
     684:	44 0f       	add	r20, r20
     686:	55 1f       	adc	r21, r21
     688:	84 70       	andi	r24, 0x04	; 4
     68a:	90 70       	andi	r25, 0x00	; 0
     68c:	88 0f       	add	r24, r24
     68e:	99 1f       	adc	r25, r25
     690:	84 2b       	or	r24, r20
     692:	61 70       	andi	r22, 0x01	; 1
     694:	86 2b       	or	r24, r22
     696:	a9 01       	movw	r20, r18
     698:	41 70       	andi	r20, 0x01	; 1
     69a:	50 70       	andi	r21, 0x00	; 0
     69c:	44 0f       	add	r20, r20
     69e:	55 1f       	adc	r21, r21
     6a0:	84 2b       	or	r24, r20
     6a2:	a9 01       	movw	r20, r18
     6a4:	42 70       	andi	r20, 0x02	; 2
     6a6:	50 70       	andi	r21, 0x00	; 0
     6a8:	63 e0       	ldi	r22, 0x03	; 3
     6aa:	44 0f       	add	r20, r20
     6ac:	55 1f       	adc	r21, r21
     6ae:	6a 95       	dec	r22
     6b0:	e1 f7       	brne	.-8      	; 0x6aa <sendRTvar+0x64>
     6b2:	84 2b       	or	r24, r20
     6b4:	24 70       	andi	r18, 0x04	; 4
     6b6:	30 70       	andi	r19, 0x00	; 0
     6b8:	93 e0       	ldi	r25, 0x03	; 3
     6ba:	22 0f       	add	r18, r18
     6bc:	33 1f       	adc	r19, r19
     6be:	9a 95       	dec	r25
     6c0:	e1 f7       	brne	.-8      	; 0x6ba <sendRTvar+0x74>
     6c2:	82 2b       	or	r24, r18
     6c4:	08 95       	ret
     6c6:	80 91 a9 01 	lds	r24, 0x01A9
     6ca:	08 95       	ret
     6cc:	80 91 1a 01 	lds	r24, 0x011A
     6d0:	08 95       	ret
     6d2:	80 91 19 01 	lds	r24, 0x0119
     6d6:	08 95       	ret
     6d8:	80 91 18 01 	lds	r24, 0x0118
     6dc:	08 95       	ret
     6de:	80 91 17 01 	lds	r24, 0x0117
     6e2:	08 95       	ret
     6e4:	80 91 16 01 	lds	r24, 0x0116
     6e8:	08 95       	ret
     6ea:	80 91 14 01 	lds	r24, 0x0114
     6ee:	08 95       	ret
     6f0:	80 91 15 01 	lds	r24, 0x0115
     6f4:	08 95       	ret
     6f6:	80 91 a0 01 	lds	r24, 0x01A0
     6fa:	08 95       	ret
     6fc:	80 91 a1 01 	lds	r24, 0x01A1
     700:	08 95       	ret
     702:	80 91 a2 01 	lds	r24, 0x01A2
     706:	08 95       	ret
     708:	80 91 b6 01 	lds	r24, 0x01B6
     70c:	08 95       	ret
     70e:	80 91 ba 01 	lds	r24, 0x01BA
     712:	08 95       	ret
     714:	80 91 a6 01 	lds	r24, 0x01A6
     718:	08 95       	ret
     71a:	80 91 a3 01 	lds	r24, 0x01A3
     71e:	08 95       	ret
     720:	80 91 a4 01 	lds	r24, 0x01A4
     724:	08 95       	ret
     726:	80 91 a5 01 	lds	r24, 0x01A5
     72a:	08 95       	ret
     72c:	80 91 0e 01 	lds	r24, 0x010E
     730:	08 95       	ret
     732:	80 e0       	ldi	r24, 0x00	; 0
     734:	08 95       	ret
     736:	83 e0       	ldi	r24, 0x03	; 3
     738:	08 95       	ret

0000073a <sendConfigVar>:
     73a:	ef ec       	ldi	r30, 0xCF	; 207
     73c:	f1 e0       	ldi	r31, 0x01	; 1
     73e:	e8 0f       	add	r30, r24
     740:	f1 1d       	adc	r31, r1
     742:	80 81       	ld	r24, Z
     744:	08 95       	ret

00000746 <pushfunc>:
     746:	e0 91 1b 01 	lds	r30, 0x011B
     74a:	f0 e0       	ldi	r31, 0x00	; 0
     74c:	9f 01       	movw	r18, r30
     74e:	2f 5f       	subi	r18, 0xFF	; 255
     750:	3f 4f       	sbci	r19, 0xFF	; 255
     752:	2f 71       	andi	r18, 0x1F	; 31
     754:	30 91 9c 01 	lds	r19, 0x019C
     758:	23 17       	cp	r18, r19
     75a:	a9 f0       	breq	.+42     	; 0x786 <pushfunc+0x40>
     75c:	61 11       	cpse	r22, r1
     75e:	61 50       	subi	r22, 0x01	; 1
     760:	ee 0f       	add	r30, r30
     762:	ff 1f       	adc	r31, r31
     764:	ee 0f       	add	r30, r30
     766:	ff 1f       	adc	r31, r31
     768:	e4 5e       	subi	r30, 0xE4	; 228
     76a:	fe 4f       	sbci	r31, 0xFE	; 254
     76c:	91 83       	std	Z+1, r25	; 0x01
     76e:	80 83       	st	Z, r24
     770:	62 83       	std	Z+2, r22	; 0x02
     772:	13 82       	std	Z+3, r1	; 0x03
     774:	20 93 1b 01 	sts	0x011B, r18
     778:	80 91 c1 00 	lds	r24, 0x00C1
     77c:	80 62       	ori	r24, 0x20	; 32
     77e:	80 93 c1 00 	sts	0x00C1, r24
     782:	80 e0       	ldi	r24, 0x00	; 0
     784:	08 95       	ret
     786:	8f ef       	ldi	r24, 0xFF	; 255
     788:	08 95       	ret

0000078a <storeConfigVar>:
     78a:	8f 39       	cpi	r24, 0x9F	; 159
     78c:	90 f4       	brcc	.+36     	; 0x7b2 <storeConfigVar+0x28>
     78e:	e8 2f       	mov	r30, r24
     790:	f0 e0       	ldi	r31, 0x00	; 0
     792:	e1 53       	subi	r30, 0x31	; 49
     794:	fe 4f       	sbci	r31, 0xFE	; 254
     796:	60 83       	st	Z, r22
     798:	8f 35       	cpi	r24, 0x5F	; 95
     79a:	29 f4       	brne	.+10     	; 0x7a6 <storeConfigVar+0x1c>
     79c:	60 93 bd 01 	sts	0x01BD, r22
     7a0:	60 93 c3 01 	sts	0x01C3, r22
     7a4:	08 95       	ret
     7a6:	80 36       	cpi	r24, 0x60	; 96
     7a8:	21 f4       	brne	.+8      	; 0x7b2 <storeConfigVar+0x28>
     7aa:	60 93 be 01 	sts	0x01BE, r22
     7ae:	60 93 c4 01 	sts	0x01C4, r22
     7b2:	08 95       	ret

000007b4 <comm>:
     7b4:	68 2f       	mov	r22, r24
     7b6:	80 91 09 01 	lds	r24, 0x0109
     7ba:	81 30       	cpi	r24, 0x01	; 1
     7bc:	31 f0       	breq	.+12     	; 0x7ca <comm+0x16>
     7be:	81 30       	cpi	r24, 0x01	; 1
     7c0:	88 f0       	brcs	.+34     	; 0x7e4 <comm+0x30>
     7c2:	82 30       	cpi	r24, 0x02	; 2
     7c4:	09 f0       	breq	.+2      	; 0x7c8 <comm+0x14>
     7c6:	77 c0       	rjmp	.+238    	; 0x8b6 <comm+0x102>
     7c8:	06 c0       	rjmp	.+12     	; 0x7d6 <comm+0x22>
     7ca:	60 93 08 01 	sts	0x0108, r22
     7ce:	82 e0       	ldi	r24, 0x02	; 2
     7d0:	80 93 09 01 	sts	0x0109, r24
     7d4:	08 95       	ret
     7d6:	80 91 08 01 	lds	r24, 0x0108
     7da:	0e 94 c5 03 	call	0x78a	; 0x78a <storeConfigVar>
     7de:	10 92 09 01 	sts	0x0109, r1
     7e2:	08 95       	ret
     7e4:	61 35       	cpi	r22, 0x51	; 81
     7e6:	b1 f1       	breq	.+108    	; 0x854 <comm+0xa0>
     7e8:	62 35       	cpi	r22, 0x52	; 82
     7ea:	70 f4       	brcc	.+28     	; 0x808 <comm+0x54>
     7ec:	62 34       	cpi	r22, 0x42	; 66
     7ee:	11 f1       	breq	.+68     	; 0x834 <comm+0x80>
     7f0:	63 34       	cpi	r22, 0x43	; 67
     7f2:	20 f4       	brcc	.+8      	; 0x7fc <comm+0x48>
     7f4:	61 34       	cpi	r22, 0x41	; 65
     7f6:	09 f0       	breq	.+2      	; 0x7fa <comm+0x46>
     7f8:	5e c0       	rjmp	.+188    	; 0x8b6 <comm+0x102>
     7fa:	18 c0       	rjmp	.+48     	; 0x82c <comm+0x78>
     7fc:	63 34       	cpi	r22, 0x43	; 67
     7fe:	e9 f0       	breq	.+58     	; 0x83a <comm+0x86>
     800:	66 34       	cpi	r22, 0x46	; 70
     802:	09 f0       	breq	.+2      	; 0x806 <comm+0x52>
     804:	58 c0       	rjmp	.+176    	; 0x8b6 <comm+0x102>
     806:	1c c0       	rjmp	.+56     	; 0x840 <comm+0x8c>
     808:	66 35       	cpi	r22, 0x56	; 86
     80a:	09 f4       	brne	.+2      	; 0x80e <comm+0x5a>
     80c:	4b c0       	rjmp	.+150    	; 0x8a4 <comm+0xf0>
     80e:	67 35       	cpi	r22, 0x57	; 87
     810:	30 f4       	brcc	.+12     	; 0x81e <comm+0x6a>
     812:	63 35       	cpi	r22, 0x53	; 83
     814:	99 f1       	breq	.+102    	; 0x87c <comm+0xc8>
     816:	64 35       	cpi	r22, 0x54	; 84
     818:	09 f0       	breq	.+2      	; 0x81c <comm+0x68>
     81a:	4d c0       	rjmp	.+154    	; 0x8b6 <comm+0x102>
     81c:	3f c0       	rjmp	.+126    	; 0x89c <comm+0xe8>
     81e:	67 35       	cpi	r22, 0x57	; 87
     820:	09 f4       	brne	.+2      	; 0x824 <comm+0x70>
     822:	46 c0       	rjmp	.+140    	; 0x8b0 <comm+0xfc>
     824:	63 37       	cpi	r22, 0x73	; 115
     826:	09 f0       	breq	.+2      	; 0x82a <comm+0x76>
     828:	46 c0       	rjmp	.+140    	; 0x8b6 <comm+0x102>
     82a:	18 c0       	rjmp	.+48     	; 0x85c <comm+0xa8>
     82c:	83 e2       	ldi	r24, 0x23	; 35
     82e:	93 e0       	ldi	r25, 0x03	; 3
     830:	66 e1       	ldi	r22, 0x16	; 22
     832:	3b c0       	rjmp	.+118    	; 0x8aa <comm+0xf6>
     834:	0e 94 c9 0b 	call	0x1792	; 0x1792 <storeConfig>
     838:	08 95       	ret
     83a:	8e e1       	ldi	r24, 0x1E	; 30
     83c:	93 e0       	ldi	r25, 0x03	; 3
     83e:	0c c0       	rjmp	.+24     	; 0x858 <comm+0xa4>
     840:	80 91 c1 00 	lds	r24, 0x00C1
     844:	8f 7d       	andi	r24, 0xDF	; 223
     846:	80 93 c1 00 	sts	0x00C1, r24
     84a:	10 92 9c 01 	sts	0x019C, r1
     84e:	10 92 1b 01 	sts	0x011B, r1
     852:	08 95       	ret
     854:	8b e1       	ldi	r24, 0x1B	; 27
     856:	93 e0       	ldi	r25, 0x03	; 3
     858:	61 e0       	ldi	r22, 0x01	; 1
     85a:	27 c0       	rjmp	.+78     	; 0x8aa <comm+0xf6>
     85c:	f8 94       	cli
     85e:	8a e0       	ldi	r24, 0x0A	; 10
     860:	80 93 0e 01 	sts	0x010E, r24
     864:	80 91 0d 01 	lds	r24, 0x010D
     868:	8b 7f       	andi	r24, 0xFB	; 251
     86a:	80 93 0d 01 	sts	0x010D, r24
     86e:	80 91 0d 01 	lds	r24, 0x010D
     872:	81 60       	ori	r24, 0x01	; 1
     874:	80 93 0d 01 	sts	0x010D, r24
     878:	78 94       	sei
     87a:	08 95       	ret
     87c:	f8 94       	cli
     87e:	8a e0       	ldi	r24, 0x0A	; 10
     880:	80 93 0e 01 	sts	0x010E, r24
     884:	80 91 0d 01 	lds	r24, 0x010D
     888:	84 60       	ori	r24, 0x04	; 4
     88a:	80 93 0d 01 	sts	0x010D, r24
     88e:	80 91 0d 01 	lds	r24, 0x010D
     892:	81 60       	ori	r24, 0x01	; 1
     894:	80 93 0d 01 	sts	0x010D, r24
     898:	78 94       	sei
     89a:	08 95       	ret
     89c:	8d e9       	ldi	r24, 0x9D	; 157
     89e:	93 e0       	ldi	r25, 0x03	; 3
     8a0:	6f e9       	ldi	r22, 0x9F	; 159
     8a2:	03 c0       	rjmp	.+6      	; 0x8aa <comm+0xf6>
     8a4:	8d e9       	ldi	r24, 0x9D	; 157
     8a6:	93 e0       	ldi	r25, 0x03	; 3
     8a8:	6c e7       	ldi	r22, 0x7C	; 124
     8aa:	0e 94 a3 03 	call	0x746	; 0x746 <pushfunc>
     8ae:	08 95       	ret
     8b0:	81 e0       	ldi	r24, 0x01	; 1
     8b2:	80 93 09 01 	sts	0x0109, r24
     8b6:	08 95       	ret

000008b8 <initUART>:
     8b8:	88 e9       	ldi	r24, 0x98	; 152
     8ba:	80 93 c1 00 	sts	0x00C1, r24
     8be:	86 e0       	ldi	r24, 0x06	; 6
     8c0:	80 93 c2 00 	sts	0x00C2, r24
     8c4:	10 92 c5 00 	sts	0x00C5, r1
     8c8:	87 e6       	ldi	r24, 0x67	; 103
     8ca:	80 93 c4 00 	sts	0x00C4, r24
     8ce:	10 92 9c 01 	sts	0x019C, r1
     8d2:	10 92 1b 01 	sts	0x011B, r1
     8d6:	08 95       	ret

000008d8 <__vector_18>:
     8d8:	1f 92       	push	r1
     8da:	0f 92       	push	r0
     8dc:	0f b6       	in	r0, 0x3f	; 63
     8de:	0f 92       	push	r0
     8e0:	11 24       	eor	r1, r1
     8e2:	2f 93       	push	r18
     8e4:	3f 93       	push	r19
     8e6:	4f 93       	push	r20
     8e8:	5f 93       	push	r21
     8ea:	6f 93       	push	r22
     8ec:	7f 93       	push	r23
     8ee:	8f 93       	push	r24
     8f0:	9f 93       	push	r25
     8f2:	af 93       	push	r26
     8f4:	bf 93       	push	r27
     8f6:	ef 93       	push	r30
     8f8:	ff 93       	push	r31
     8fa:	df 93       	push	r29
     8fc:	cf 93       	push	r28
     8fe:	0f 92       	push	r0
     900:	cd b7       	in	r28, 0x3d	; 61
     902:	de b7       	in	r29, 0x3e	; 62
     904:	80 91 c0 00 	lds	r24, 0x00C0
     908:	88 71       	andi	r24, 0x18	; 24
     90a:	21 f0       	breq	.+8      	; 0x914 <__stack+0x15>
     90c:	80 91 c6 00 	lds	r24, 0x00C6
     910:	89 83       	std	Y+1, r24	; 0x01
     912:	04 c0       	rjmp	.+8      	; 0x91c <__stack+0x1d>
     914:	80 91 c6 00 	lds	r24, 0x00C6
     918:	0e 94 da 03 	call	0x7b4	; 0x7b4 <comm>
     91c:	0f 90       	pop	r0
     91e:	cf 91       	pop	r28
     920:	df 91       	pop	r29
     922:	ff 91       	pop	r31
     924:	ef 91       	pop	r30
     926:	bf 91       	pop	r27
     928:	af 91       	pop	r26
     92a:	9f 91       	pop	r25
     92c:	8f 91       	pop	r24
     92e:	7f 91       	pop	r23
     930:	6f 91       	pop	r22
     932:	5f 91       	pop	r21
     934:	4f 91       	pop	r20
     936:	3f 91       	pop	r19
     938:	2f 91       	pop	r18
     93a:	0f 90       	pop	r0
     93c:	0f be       	out	0x3f, r0	; 63
     93e:	0f 90       	pop	r0
     940:	1f 90       	pop	r1
     942:	18 95       	reti

00000944 <__vector_19>:
     944:	1f 92       	push	r1
     946:	0f 92       	push	r0
     948:	0f b6       	in	r0, 0x3f	; 63
     94a:	0f 92       	push	r0
     94c:	11 24       	eor	r1, r1
     94e:	2f 93       	push	r18
     950:	3f 93       	push	r19
     952:	4f 93       	push	r20
     954:	5f 93       	push	r21
     956:	6f 93       	push	r22
     958:	7f 93       	push	r23
     95a:	8f 93       	push	r24
     95c:	9f 93       	push	r25
     95e:	af 93       	push	r26
     960:	bf 93       	push	r27
     962:	ef 93       	push	r30
     964:	ff 93       	push	r31
     966:	a0 91 9c 01 	lds	r26, 0x019C
     96a:	b0 e0       	ldi	r27, 0x00	; 0
     96c:	aa 0f       	add	r26, r26
     96e:	bb 1f       	adc	r27, r27
     970:	aa 0f       	add	r26, r26
     972:	bb 1f       	adc	r27, r27
     974:	a4 5e       	subi	r26, 0xE4	; 228
     976:	be 4f       	sbci	r27, 0xFE	; 254
     978:	ed 91       	ld	r30, X+
     97a:	fc 91       	ld	r31, X
     97c:	11 97       	sbiw	r26, 0x01	; 1
     97e:	13 96       	adiw	r26, 0x03	; 3
     980:	8c 91       	ld	r24, X
     982:	09 95       	icall
     984:	80 93 c6 00 	sts	0x00C6, r24
     988:	80 91 9c 01 	lds	r24, 0x019C
     98c:	90 e0       	ldi	r25, 0x00	; 0
     98e:	fc 01       	movw	r30, r24
     990:	ee 0f       	add	r30, r30
     992:	ff 1f       	adc	r31, r31
     994:	ee 0f       	add	r30, r30
     996:	ff 1f       	adc	r31, r31
     998:	e4 5e       	subi	r30, 0xE4	; 228
     99a:	fe 4f       	sbci	r31, 0xFE	; 254
     99c:	23 81       	ldd	r18, Z+3	; 0x03
     99e:	32 81       	ldd	r19, Z+2	; 0x02
     9a0:	23 17       	cp	r18, r19
     9a2:	18 f4       	brcc	.+6      	; 0x9aa <__vector_19+0x66>
     9a4:	2f 5f       	subi	r18, 0xFF	; 255
     9a6:	23 83       	std	Z+3, r18	; 0x03
     9a8:	0e c0       	rjmp	.+28     	; 0x9c6 <__vector_19+0x82>
     9aa:	01 96       	adiw	r24, 0x01	; 1
     9ac:	8f 71       	andi	r24, 0x1F	; 31
     9ae:	90 70       	andi	r25, 0x00	; 0
     9b0:	80 93 9c 01 	sts	0x019C, r24
     9b4:	20 91 1b 01 	lds	r18, 0x011B
     9b8:	28 17       	cp	r18, r24
     9ba:	29 f4       	brne	.+10     	; 0x9c6 <__vector_19+0x82>
     9bc:	80 91 c1 00 	lds	r24, 0x00C1
     9c0:	8f 7d       	andi	r24, 0xDF	; 223
     9c2:	80 93 c1 00 	sts	0x00C1, r24
     9c6:	ff 91       	pop	r31
     9c8:	ef 91       	pop	r30
     9ca:	bf 91       	pop	r27
     9cc:	af 91       	pop	r26
     9ce:	9f 91       	pop	r25
     9d0:	8f 91       	pop	r24
     9d2:	7f 91       	pop	r23
     9d4:	6f 91       	pop	r22
     9d6:	5f 91       	pop	r21
     9d8:	4f 91       	pop	r20
     9da:	3f 91       	pop	r19
     9dc:	2f 91       	pop	r18
     9de:	0f 90       	pop	r0
     9e0:	0f be       	out	0x3f, r0	; 63
     9e2:	0f 90       	pop	r0
     9e4:	1f 90       	pop	r1
     9e6:	18 95       	reti

000009e8 <init_fuelcalc>:
     9e8:	84 e6       	ldi	r24, 0x64	; 100
     9ea:	80 93 a0 01 	sts	0x01A0, r24
     9ee:	80 93 a1 01 	sts	0x01A1, r24
     9f2:	80 93 a2 01 	sts	0x01A2, r24
     9f6:	80 93 a3 01 	sts	0x01A3, r24
     9fa:	80 93 a4 01 	sts	0x01A4, r24
     9fe:	80 93 a5 01 	sts	0x01A5, r24
     a02:	10 92 a6 01 	sts	0x01A6, r1
     a06:	80 93 a7 01 	sts	0x01A7, r24
     a0a:	08 95       	ret

00000a0c <warmup_enrich>:
     a0c:	0f 93       	push	r16
     a0e:	1f 93       	push	r17
     a10:	df 93       	push	r29
     a12:	cf 93       	push	r28
     a14:	00 d0       	rcall	.+0      	; 0xa16 <warmup_enrich+0xa>
     a16:	0f 92       	push	r0
     a18:	cd b7       	in	r28, 0x3d	; 61
     a1a:	de b7       	in	r29, 0x3e	; 62
     a1c:	f8 94       	cli
     a1e:	80 91 a9 01 	lds	r24, 0x01A9
     a22:	81 ff       	sbrs	r24, 1
     a24:	06 c0       	rjmp	.+12     	; 0xa32 <warmup_enrich+0x26>
     a26:	8d 7f       	andi	r24, 0xFD	; 253
     a28:	8c 60       	ori	r24, 0x0C	; 12
     a2a:	80 93 a9 01 	sts	0x01A9, r24
     a2e:	10 92 9f 01 	sts	0x019F, r1
     a32:	78 94       	sei
     a34:	40 91 ac 01 	lds	r20, 0x01AC
     a38:	8b e4       	ldi	r24, 0x4B	; 75
     a3a:	92 e0       	ldi	r25, 0x02	; 2
     a3c:	6a e0       	ldi	r22, 0x0A	; 10
     a3e:	9e 01       	movw	r18, r28
     a40:	2f 5f       	subi	r18, 0xFF	; 255
     a42:	3f 4f       	sbci	r19, 0xFF	; 255
     a44:	0e 94 81 0a 	call	0x1502	; 0x1502 <search_table>
     a48:	eb 81       	ldd	r30, Y+3	; 0x03
     a4a:	f0 e0       	ldi	r31, 0x00	; 0
     a4c:	00 91 ac 01 	lds	r16, 0x01AC
     a50:	e1 53       	subi	r30, 0x31	; 49
     a52:	fe 4f       	sbci	r31, 0xFE	; 254
     a54:	df 01       	movw	r26, r30
     a56:	ad 5b       	subi	r26, 0xBD	; 189
     a58:	bf 4f       	sbci	r27, 0xFF	; 255
     a5a:	ec 5b       	subi	r30, 0xBC	; 188
     a5c:	ff 4f       	sbci	r31, 0xFF	; 255
     a5e:	89 81       	ldd	r24, Y+1	; 0x01
     a60:	6a 81       	ldd	r22, Y+2	; 0x02
     a62:	4c 91       	ld	r20, X
     a64:	20 81       	ld	r18, Z
     a66:	0e 94 3d 0a 	call	0x147a	; 0x147a <linear_interp>
     a6a:	18 2f       	mov	r17, r24
     a6c:	85 36       	cpi	r24, 0x65	; 101
     a6e:	68 f1       	brcs	.+90     	; 0xaca <warmup_enrich+0xbe>
     a70:	f8 94       	cli
     a72:	80 91 a9 01 	lds	r24, 0x01A9
     a76:	88 60       	ori	r24, 0x08	; 8
     a78:	80 93 a9 01 	sts	0x01A9, r24
     a7c:	78 94       	sei
     a7e:	80 91 a9 01 	lds	r24, 0x01A9
     a82:	82 ff       	sbrs	r24, 2
     a84:	2a c0       	rjmp	.+84     	; 0xada <warmup_enrich+0xce>
     a86:	80 91 9f 01 	lds	r24, 0x019F
     a8a:	60 91 12 02 	lds	r22, 0x0212
     a8e:	68 17       	cp	r22, r24
     a90:	a0 f0       	brcs	.+40     	; 0xaba <warmup_enrich+0xae>
     a92:	00 91 9f 01 	lds	r16, 0x019F
     a96:	80 e0       	ldi	r24, 0x00	; 0
     a98:	40 91 11 02 	lds	r20, 0x0211
     a9c:	20 e0       	ldi	r18, 0x00	; 0
     a9e:	0e 94 3d 0a 	call	0x147a	; 0x147a <linear_interp>
     aa2:	21 2f       	mov	r18, r17
     aa4:	30 e0       	ldi	r19, 0x00	; 0
     aa6:	28 0f       	add	r18, r24
     aa8:	31 1d       	adc	r19, r1
     aaa:	83 2f       	mov	r24, r19
     aac:	99 27       	eor	r25, r25
     aae:	00 97       	sbiw	r24, 0x00	; 0
     ab0:	11 f0       	breq	.+4      	; 0xab6 <warmup_enrich+0xaa>
     ab2:	2f ef       	ldi	r18, 0xFF	; 255
     ab4:	30 e0       	ldi	r19, 0x00	; 0
     ab6:	12 2f       	mov	r17, r18
     ab8:	10 c0       	rjmp	.+32     	; 0xada <warmup_enrich+0xce>
     aba:	f8 94       	cli
     abc:	80 91 a9 01 	lds	r24, 0x01A9
     ac0:	8b 7f       	andi	r24, 0xFB	; 251
     ac2:	80 93 a9 01 	sts	0x01A9, r24
     ac6:	78 94       	sei
     ac8:	08 c0       	rjmp	.+16     	; 0xada <warmup_enrich+0xce>
     aca:	f8 94       	cli
     acc:	80 91 a9 01 	lds	r24, 0x01A9
     ad0:	83 7f       	andi	r24, 0xF3	; 243
     ad2:	80 93 a9 01 	sts	0x01A9, r24
     ad6:	78 94       	sei
     ad8:	14 e6       	ldi	r17, 0x64	; 100
     ada:	10 93 a2 01 	sts	0x01A2, r17
     ade:	0f 90       	pop	r0
     ae0:	0f 90       	pop	r0
     ae2:	0f 90       	pop	r0
     ae4:	cf 91       	pop	r28
     ae6:	df 91       	pop	r29
     ae8:	1f 91       	pop	r17
     aea:	0f 91       	pop	r16
     aec:	08 95       	ret

00000aee <tps_acc_enrich>:
     aee:	ef 92       	push	r14
     af0:	ff 92       	push	r15
     af2:	0f 93       	push	r16
     af4:	1f 93       	push	r17
     af6:	df 93       	push	r29
     af8:	cf 93       	push	r28
     afa:	00 d0       	rcall	.+0      	; 0xafc <tps_acc_enrich+0xe>
     afc:	0f 92       	push	r0
     afe:	cd b7       	in	r28, 0x3d	; 61
     b00:	de b7       	in	r29, 0x3e	; 62
     b02:	f8 94       	cli
     b04:	e0 90 ae 01 	lds	r14, 0x01AE
     b08:	80 91 af 01 	lds	r24, 0x01AF
     b0c:	78 94       	sei
     b0e:	90 91 22 02 	lds	r25, 0x0222
     b12:	e8 16       	cp	r14, r24
     b14:	08 f0       	brcs	.+2      	; 0xb18 <tps_acc_enrich+0x2a>
     b16:	3f c0       	rjmp	.+126    	; 0xb96 <tps_acc_enrich+0xa8>
     b18:	8e 19       	sub	r24, r14
     b1a:	89 17       	cp	r24, r25
     b1c:	48 f1       	brcs	.+82     	; 0xb70 <tps_acc_enrich+0x82>
     b1e:	80 91 a9 01 	lds	r24, 0x01A9
     b22:	84 ff       	sbrs	r24, 4
     b24:	0d c0       	rjmp	.+26     	; 0xb40 <tps_acc_enrich+0x52>
     b26:	84 e6       	ldi	r24, 0x64	; 100
     b28:	80 93 a7 01 	sts	0x01A7, r24
     b2c:	10 92 a6 01 	sts	0x01A6, r1
     b30:	f8 94       	cli
     b32:	80 91 a9 01 	lds	r24, 0x01A9
     b36:	8f 7c       	andi	r24, 0xCF	; 207
     b38:	80 93 a9 01 	sts	0x01A9, r24
     b3c:	78 94       	sei
     b3e:	be c0       	rjmp	.+380    	; 0xcbc <tps_acc_enrich+0x1ce>
     b40:	90 91 b6 01 	lds	r25, 0x01B6
     b44:	80 91 5a 02 	lds	r24, 0x025A
     b48:	98 17       	cp	r25, r24
     b4a:	08 f4       	brcc	.+2      	; 0xb4e <tps_acc_enrich+0x60>
     b4c:	b7 c0       	rjmp	.+366    	; 0xcbc <tps_acc_enrich+0x1ce>
     b4e:	80 91 24 02 	lds	r24, 0x0224
     b52:	80 93 a7 01 	sts	0x01A7, r24
     b56:	f8 94       	cli
     b58:	80 91 a9 01 	lds	r24, 0x01A9
     b5c:	8f 7e       	andi	r24, 0xEF	; 239
     b5e:	80 93 a9 01 	sts	0x01A9, r24
     b62:	80 91 a9 01 	lds	r24, 0x01A9
     b66:	80 62       	ori	r24, 0x20	; 32
     b68:	80 93 a9 01 	sts	0x01A9, r24
     b6c:	78 94       	sei
     b6e:	a6 c0       	rjmp	.+332    	; 0xcbc <tps_acc_enrich+0x1ce>
     b70:	80 91 a9 01 	lds	r24, 0x01A9
     b74:	85 ff       	sbrs	r24, 5
     b76:	a2 c0       	rjmp	.+324    	; 0xcbc <tps_acc_enrich+0x1ce>
     b78:	90 91 b6 01 	lds	r25, 0x01B6
     b7c:	80 91 5a 02 	lds	r24, 0x025A
     b80:	98 17       	cp	r25, r24
     b82:	08 f0       	brcs	.+2      	; 0xb86 <tps_acc_enrich+0x98>
     b84:	9b c0       	rjmp	.+310    	; 0xcbc <tps_acc_enrich+0x1ce>
     b86:	f8 94       	cli
     b88:	80 91 a9 01 	lds	r24, 0x01A9
     b8c:	8f 7c       	andi	r24, 0xCF	; 207
     b8e:	80 93 a9 01 	sts	0x01A9, r24
     b92:	78 94       	sei
     b94:	8e c0       	rjmp	.+284    	; 0xcb2 <tps_acc_enrich+0x1c4>
     b96:	e8 1a       	sub	r14, r24
     b98:	e9 16       	cp	r14, r25
     b9a:	08 f4       	brcc	.+2      	; 0xb9e <tps_acc_enrich+0xb0>
     b9c:	79 c0       	rjmp	.+242    	; 0xc90 <tps_acc_enrich+0x1a2>
     b9e:	80 91 a9 01 	lds	r24, 0x01A9
     ba2:	84 ff       	sbrs	r24, 4
     ba4:	5e c0       	rjmp	.+188    	; 0xc62 <tps_acc_enrich+0x174>
     ba6:	00 91 ac 01 	lds	r16, 0x01AC
     baa:	80 e0       	ldi	r24, 0x00	; 0
     bac:	6d ec       	ldi	r22, 0xCD	; 205
     bae:	40 91 4a 02 	lds	r20, 0x024A
     bb2:	24 e6       	ldi	r18, 0x64	; 100
     bb4:	0e 94 3d 0a 	call	0x147a	; 0x147a <linear_interp>
     bb8:	18 2f       	mov	r17, r24
     bba:	85 e5       	ldi	r24, 0x55	; 85
     bbc:	92 e0       	ldi	r25, 0x02	; 2
     bbe:	64 e0       	ldi	r22, 0x04	; 4
     bc0:	4e 2d       	mov	r20, r14
     bc2:	9e 01       	movw	r18, r28
     bc4:	2f 5f       	subi	r18, 0xFF	; 255
     bc6:	3f 4f       	sbci	r19, 0xFF	; 255
     bc8:	0e 94 81 0a 	call	0x1502	; 0x1502 <search_table>
     bcc:	eb 81       	ldd	r30, Y+3	; 0x03
     bce:	f0 e0       	ldi	r31, 0x00	; 0
     bd0:	e1 53       	subi	r30, 0x31	; 49
     bd2:	fe 4f       	sbci	r31, 0xFE	; 254
     bd4:	df 01       	movw	r26, r30
     bd6:	a3 5b       	subi	r26, 0xB3	; 179
     bd8:	bf 4f       	sbci	r27, 0xFF	; 255
     bda:	e2 5b       	subi	r30, 0xB2	; 178
     bdc:	ff 4f       	sbci	r31, 0xFF	; 255
     bde:	89 81       	ldd	r24, Y+1	; 0x01
     be0:	6a 81       	ldd	r22, Y+2	; 0x02
     be2:	4c 91       	ld	r20, X
     be4:	20 81       	ld	r18, Z
     be6:	0e 2d       	mov	r16, r14
     be8:	0e 94 3d 0a 	call	0x147a	; 0x147a <linear_interp>
     bec:	68 2f       	mov	r22, r24
     bee:	81 2f       	mov	r24, r17
     bf0:	70 e0       	ldi	r23, 0x00	; 0
     bf2:	0e 94 b6 0a 	call	0x156c	; 0x156c <mult_div100>
     bf6:	7c 01       	movw	r14, r24
     bf8:	89 2f       	mov	r24, r25
     bfa:	99 27       	eor	r25, r25
     bfc:	00 97       	sbiw	r24, 0x00	; 0
     bfe:	19 f0       	breq	.+6      	; 0xc06 <tps_acc_enrich+0x118>
     c00:	38 ec       	ldi	r19, 0xC8	; 200
     c02:	e3 2e       	mov	r14, r19
     c04:	f1 2c       	mov	r15, r1
     c06:	00 91 ac 01 	lds	r16, 0x01AC
     c0a:	80 e0       	ldi	r24, 0x00	; 0
     c0c:	6d ec       	ldi	r22, 0xCD	; 205
     c0e:	40 91 21 02 	lds	r20, 0x0221
     c12:	20 e0       	ldi	r18, 0x00	; 0
     c14:	0e 94 3d 0a 	call	0x147a	; 0x147a <linear_interp>
     c18:	97 01       	movw	r18, r14
     c1a:	28 0f       	add	r18, r24
     c1c:	31 1d       	adc	r19, r1
     c1e:	c9 01       	movw	r24, r18
     c20:	29 2f       	mov	r18, r25
     c22:	33 27       	eor	r19, r19
     c24:	21 15       	cp	r18, r1
     c26:	31 05       	cpc	r19, r1
     c28:	11 f0       	breq	.+4      	; 0xc2e <tps_acc_enrich+0x140>
     c2a:	8e ef       	ldi	r24, 0xFE	; 254
     c2c:	90 e0       	ldi	r25, 0x00	; 0
     c2e:	20 91 a6 01 	lds	r18, 0x01A6
     c32:	30 e0       	ldi	r19, 0x00	; 0
     c34:	28 17       	cp	r18, r24
     c36:	39 07       	cpc	r19, r25
     c38:	10 f4       	brcc	.+4      	; 0xc3e <tps_acc_enrich+0x150>
     c3a:	80 93 a6 01 	sts	0x01A6, r24
     c3e:	80 91 a9 01 	lds	r24, 0x01A9
     c42:	85 fd       	sbrc	r24, 5
     c44:	06 c0       	rjmp	.+12     	; 0xc52 <tps_acc_enrich+0x164>
     c46:	90 91 9d 01 	lds	r25, 0x019D
     c4a:	80 91 9e 01 	lds	r24, 0x019E
     c4e:	98 17       	cp	r25, r24
     c50:	a8 f1       	brcs	.+106    	; 0xcbc <tps_acc_enrich+0x1ce>
     c52:	f8 94       	cli
     c54:	80 91 a9 01 	lds	r24, 0x01A9
     c58:	8f 7c       	andi	r24, 0xCF	; 207
     c5a:	80 93 a9 01 	sts	0x01A9, r24
     c5e:	78 94       	sei
     c60:	28 c0       	rjmp	.+80     	; 0xcb2 <tps_acc_enrich+0x1c4>
     c62:	80 91 1d 02 	lds	r24, 0x021D
     c66:	80 93 a6 01 	sts	0x01A6, r24
     c6a:	10 92 9d 01 	sts	0x019D, r1
     c6e:	80 91 23 02 	lds	r24, 0x0223
     c72:	80 93 9e 01 	sts	0x019E, r24
     c76:	f8 94       	cli
     c78:	80 91 a9 01 	lds	r24, 0x01A9
     c7c:	80 61       	ori	r24, 0x10	; 16
     c7e:	80 93 a9 01 	sts	0x01A9, r24
     c82:	80 91 a9 01 	lds	r24, 0x01A9
     c86:	8f 7d       	andi	r24, 0xDF	; 223
     c88:	80 93 a9 01 	sts	0x01A9, r24
     c8c:	78 94       	sei
     c8e:	16 c0       	rjmp	.+44     	; 0xcbc <tps_acc_enrich+0x1ce>
     c90:	80 91 a9 01 	lds	r24, 0x01A9
     c94:	85 fd       	sbrc	r24, 5
     c96:	06 c0       	rjmp	.+12     	; 0xca4 <tps_acc_enrich+0x1b6>
     c98:	90 91 9d 01 	lds	r25, 0x019D
     c9c:	80 91 9e 01 	lds	r24, 0x019E
     ca0:	98 17       	cp	r25, r24
     ca2:	60 f0       	brcs	.+24     	; 0xcbc <tps_acc_enrich+0x1ce>
     ca4:	f8 94       	cli
     ca6:	80 91 a9 01 	lds	r24, 0x01A9
     caa:	8f 7c       	andi	r24, 0xCF	; 207
     cac:	80 93 a9 01 	sts	0x01A9, r24
     cb0:	78 94       	sei
     cb2:	84 e6       	ldi	r24, 0x64	; 100
     cb4:	80 93 a7 01 	sts	0x01A7, r24
     cb8:	10 92 a6 01 	sts	0x01A6, r1
     cbc:	0f 90       	pop	r0
     cbe:	0f 90       	pop	r0
     cc0:	0f 90       	pop	r0
     cc2:	cf 91       	pop	r28
     cc4:	df 91       	pop	r29
     cc6:	1f 91       	pop	r17
     cc8:	0f 91       	pop	r16
     cca:	ff 90       	pop	r15
     ccc:	ef 90       	pop	r14
     cce:	08 95       	ret

00000cd0 <o2>:
     cd0:	90 91 27 02 	lds	r25, 0x0227
     cd4:	99 23       	and	r25, r25
     cd6:	e1 f0       	breq	.+56     	; 0xd10 <o2+0x40>
     cd8:	20 91 b6 01 	lds	r18, 0x01B6
     cdc:	80 91 47 02 	lds	r24, 0x0247
     ce0:	28 17       	cp	r18, r24
     ce2:	b0 f0       	brcs	.+44     	; 0xd10 <o2+0x40>
     ce4:	80 91 a9 01 	lds	r24, 0x01A9
     ce8:	80 73       	andi	r24, 0x30	; 48
     cea:	91 f4       	brne	.+36     	; 0xd10 <o2+0x40>
     cec:	20 91 ac 01 	lds	r18, 0x01AC
     cf0:	80 91 25 02 	lds	r24, 0x0225
     cf4:	28 17       	cp	r18, r24
     cf6:	60 f0       	brcs	.+24     	; 0xd10 <o2+0x40>
     cf8:	80 91 ae 01 	lds	r24, 0x01AE
     cfc:	85 3b       	cpi	r24, 0xB5	; 181
     cfe:	40 f4       	brcc	.+16     	; 0xd10 <o2+0x40>
     d00:	80 91 aa 01 	lds	r24, 0x01AA
     d04:	82 fd       	sbrc	r24, 2
     d06:	04 c0       	rjmp	.+8      	; 0xd10 <o2+0x40>
     d08:	80 91 ab 01 	lds	r24, 0x01AB
     d0c:	80 36       	cpi	r24, 0x60	; 96
     d0e:	30 f0       	brcs	.+12     	; 0xd1c <o2+0x4c>
     d10:	84 e6       	ldi	r24, 0x64	; 100
     d12:	80 93 a0 01 	sts	0x01A0, r24
     d16:	10 92 a8 01 	sts	0x01A8, r1
     d1a:	08 95       	ret
     d1c:	20 91 a8 01 	lds	r18, 0x01A8
     d20:	80 91 26 02 	lds	r24, 0x0226
     d24:	82 17       	cp	r24, r18
     d26:	58 f5       	brcc	.+86     	; 0xd7e <o2+0xae>
     d28:	10 92 a8 01 	sts	0x01A8, r1
     d2c:	80 91 15 01 	lds	r24, 0x0115
     d30:	40 91 49 02 	lds	r20, 0x0249
     d34:	84 17       	cp	r24, r20
     d36:	19 f1       	breq	.+70     	; 0xd7e <o2+0xae>
     d38:	50 91 15 01 	lds	r21, 0x0115
     d3c:	80 91 45 02 	lds	r24, 0x0245
     d40:	30 91 28 02 	lds	r19, 0x0228
     d44:	20 91 a0 01 	lds	r18, 0x01A0
     d48:	54 17       	cp	r21, r20
     d4a:	18 f4       	brcc	.+6      	; 0xd52 <o2+0x82>
     d4c:	81 fd       	sbrc	r24, 1
     d4e:	10 c0       	rjmp	.+32     	; 0xd70 <o2+0xa0>
     d50:	02 c0       	rjmp	.+4      	; 0xd56 <o2+0x86>
     d52:	81 ff       	sbrs	r24, 1
     d54:	0d c0       	rjmp	.+26     	; 0xd70 <o2+0xa0>
     d56:	3c 59       	subi	r19, 0x9C	; 156
     d58:	92 0f       	add	r25, r18
     d5a:	39 17       	cp	r19, r25
     d5c:	30 f4       	brcc	.+12     	; 0xd6a <o2+0x9a>
     d5e:	30 93 a0 01 	sts	0x01A0, r19
     d62:	08 95       	ret
     d64:	80 93 a0 01 	sts	0x01A0, r24
     d68:	08 95       	ret
     d6a:	90 93 a0 01 	sts	0x01A0, r25
     d6e:	08 95       	ret
     d70:	84 e6       	ldi	r24, 0x64	; 100
     d72:	83 1b       	sub	r24, r19
     d74:	29 1b       	sub	r18, r25
     d76:	92 2f       	mov	r25, r18
     d78:	28 17       	cp	r18, r24
     d7a:	b8 f7       	brcc	.-18     	; 0xd6a <o2+0x9a>
     d7c:	f3 cf       	rjmp	.-26     	; 0xd64 <o2+0x94>
     d7e:	08 95       	ret

00000d80 <ve_table_lookup>:
     d80:	ef 92       	push	r14
     d82:	ff 92       	push	r15
     d84:	0f 93       	push	r16
     d86:	1f 93       	push	r17
     d88:	df 93       	push	r29
     d8a:	cf 93       	push	r28
     d8c:	00 d0       	rcall	.+0      	; 0xd8e <ve_table_lookup+0xe>
     d8e:	00 d0       	rcall	.+0      	; 0xd90 <ve_table_lookup+0x10>
     d90:	00 d0       	rcall	.+0      	; 0xd92 <ve_table_lookup+0x12>
     d92:	cd b7       	in	r28, 0x3d	; 61
     d94:	de b7       	in	r29, 0x3e	; 62
     d96:	80 91 45 02 	lds	r24, 0x0245
     d9a:	82 ff       	sbrs	r24, 2
     d9c:	04 c0       	rjmp	.+8      	; 0xda6 <ve_table_lookup+0x26>
     d9e:	80 91 ae 01 	lds	r24, 0x01AE
     da2:	80 93 ab 01 	sts	0x01AB, r24
     da6:	40 91 ab 01 	lds	r20, 0x01AB
     daa:	8b e3       	ldi	r24, 0x3B	; 59
     dac:	92 e0       	ldi	r25, 0x02	; 2
     dae:	68 e0       	ldi	r22, 0x08	; 8
     db0:	9e 01       	movw	r18, r28
     db2:	2f 5f       	subi	r18, 0xFF	; 255
     db4:	3f 4f       	sbci	r19, 0xFF	; 255
     db6:	0e 94 81 0a 	call	0x1502	; 0x1502 <search_table>
     dba:	40 91 b6 01 	lds	r20, 0x01B6
     dbe:	83 e3       	ldi	r24, 0x33	; 51
     dc0:	92 e0       	ldi	r25, 0x02	; 2
     dc2:	68 e0       	ldi	r22, 0x08	; 8
     dc4:	9e 01       	movw	r18, r28
     dc6:	2c 5f       	subi	r18, 0xFC	; 252
     dc8:	3f 4f       	sbci	r19, 0xFF	; 255
     dca:	0e 94 81 0a 	call	0x1502	; 0x1502 <search_table>
     dce:	ab 81       	ldd	r26, Y+3	; 0x03
     dd0:	b0 e0       	ldi	r27, 0x00	; 0
     dd2:	8e 81       	ldd	r24, Y+6	; 0x06
     dd4:	90 e0       	ldi	r25, 0x00	; 0
     dd6:	fd 01       	movw	r30, r26
     dd8:	31 97       	sbiw	r30, 0x01	; 1
     dda:	63 e0       	ldi	r22, 0x03	; 3
     ddc:	ee 0f       	add	r30, r30
     dde:	ff 1f       	adc	r31, r31
     de0:	6a 95       	dec	r22
     de2:	e1 f7       	brne	.-8      	; 0xddc <ve_table_lookup+0x5c>
     de4:	e8 0f       	add	r30, r24
     de6:	f9 1f       	adc	r31, r25
     de8:	9d 01       	movw	r18, r26
     dea:	53 e0       	ldi	r21, 0x03	; 3
     dec:	22 0f       	add	r18, r18
     dee:	33 1f       	adc	r19, r19
     df0:	5a 95       	dec	r21
     df2:	e1 f7       	brne	.-8      	; 0xdec <ve_table_lookup+0x6c>
     df4:	28 0f       	add	r18, r24
     df6:	39 1f       	adc	r19, r25
     df8:	21 53       	subi	r18, 0x31	; 49
     dfa:	3e 4f       	sbci	r19, 0xFE	; 254
     dfc:	c9 01       	movw	r24, r18
     dfe:	01 97       	sbiw	r24, 0x01	; 1
     e00:	dc 01       	movw	r26, r24
     e02:	ec 90       	ld	r14, X
     e04:	d9 01       	movw	r26, r18
     e06:	fc 90       	ld	r15, X
     e08:	00 91 b6 01 	lds	r16, 0x01B6
     e0c:	e1 53       	subi	r30, 0x31	; 49
     e0e:	fe 4f       	sbci	r31, 0xFE	; 254
     e10:	df 01       	movw	r26, r30
     e12:	11 97       	sbiw	r26, 0x01	; 1
     e14:	8c 81       	ldd	r24, Y+4	; 0x04
     e16:	6d 81       	ldd	r22, Y+5	; 0x05
     e18:	4c 91       	ld	r20, X
     e1a:	20 81       	ld	r18, Z
     e1c:	0e 94 3d 0a 	call	0x147a	; 0x147a <linear_interp>
     e20:	18 2f       	mov	r17, r24
     e22:	00 91 b6 01 	lds	r16, 0x01B6
     e26:	8c 81       	ldd	r24, Y+4	; 0x04
     e28:	6d 81       	ldd	r22, Y+5	; 0x05
     e2a:	4e 2d       	mov	r20, r14
     e2c:	2f 2d       	mov	r18, r15
     e2e:	0e 94 3d 0a 	call	0x147a	; 0x147a <linear_interp>
     e32:	28 2f       	mov	r18, r24
     e34:	00 91 ab 01 	lds	r16, 0x01AB
     e38:	89 81       	ldd	r24, Y+1	; 0x01
     e3a:	6a 81       	ldd	r22, Y+2	; 0x02
     e3c:	41 2f       	mov	r20, r17
     e3e:	0e 94 3d 0a 	call	0x147a	; 0x147a <linear_interp>
     e42:	80 93 a5 01 	sts	0x01A5, r24
     e46:	26 96       	adiw	r28, 0x06	; 6
     e48:	0f b6       	in	r0, 0x3f	; 63
     e4a:	f8 94       	cli
     e4c:	de bf       	out	0x3e, r29	; 62
     e4e:	0f be       	out	0x3f, r0	; 63
     e50:	cd bf       	out	0x3d, r28	; 61
     e52:	cf 91       	pop	r28
     e54:	df 91       	pop	r29
     e56:	1f 91       	pop	r17
     e58:	0f 91       	pop	r16
     e5a:	ff 90       	pop	r15
     e5c:	ef 90       	pop	r14
     e5e:	08 95       	ret

00000e60 <calc_total_enrichment>:
     e60:	0f 93       	push	r16
     e62:	1f 93       	push	r17
     e64:	cf 93       	push	r28
     e66:	df 93       	push	r29
     e68:	60 91 a2 01 	lds	r22, 0x01A2
     e6c:	80 91 a7 01 	lds	r24, 0x01A7
     e70:	70 e0       	ldi	r23, 0x00	; 0
     e72:	0e 94 b6 0a 	call	0x156c	; 0x156c <mult_div100>
     e76:	bc 01       	movw	r22, r24
     e78:	80 91 a1 01 	lds	r24, 0x01A1
     e7c:	0e 94 b6 0a 	call	0x156c	; 0x156c <mult_div100>
     e80:	bc 01       	movw	r22, r24
     e82:	c0 ea       	ldi	r28, 0xA0	; 160
     e84:	d1 e0       	ldi	r29, 0x01	; 1
     e86:	80 91 a0 01 	lds	r24, 0x01A0
     e8a:	0e 94 b6 0a 	call	0x156c	; 0x156c <mult_div100>
     e8e:	bc 01       	movw	r22, r24
     e90:	80 91 a3 01 	lds	r24, 0x01A3
     e94:	0e 94 b6 0a 	call	0x156c	; 0x156c <mult_div100>
     e98:	68 2f       	mov	r22, r24
     e9a:	29 2f       	mov	r18, r25
     e9c:	30 e0       	ldi	r19, 0x00	; 0
     e9e:	21 15       	cp	r18, r1
     ea0:	31 05       	cpc	r19, r1
     ea2:	19 f0       	breq	.+6      	; 0xeaa <calc_total_enrichment+0x4a>
     ea4:	8f ef       	ldi	r24, 0xFF	; 255
     ea6:	8c 83       	std	Y+4, r24	; 0x04
     ea8:	01 c0       	rjmp	.+2      	; 0xeac <calc_total_enrichment+0x4c>
     eaa:	8c 83       	std	Y+4, r24	; 0x04
     eac:	80 91 a5 01 	lds	r24, 0x01A5
     eb0:	79 2f       	mov	r23, r25
     eb2:	0e 94 b6 0a 	call	0x156c	; 0x156c <mult_div100>
     eb6:	bc 01       	movw	r22, r24
     eb8:	80 91 45 02 	lds	r24, 0x0245
     ebc:	82 fd       	sbrc	r24, 2
     ebe:	05 c0       	rjmp	.+10     	; 0xeca <calc_total_enrichment+0x6a>
     ec0:	80 91 ab 01 	lds	r24, 0x01AB
     ec4:	0e 94 b6 0a 	call	0x156c	; 0x156c <mult_div100>
     ec8:	bc 01       	movw	r22, r24
     eca:	80 91 29 02 	lds	r24, 0x0229
     ece:	0e 94 b6 0a 	call	0x156c	; 0x156c <mult_div100>
     ed2:	29 2f       	mov	r18, r25
     ed4:	30 e0       	ldi	r19, 0x00	; 0
     ed6:	21 15       	cp	r18, r1
     ed8:	31 05       	cpc	r19, r1
     eda:	11 f4       	brne	.+4      	; 0xee0 <calc_total_enrichment+0x80>
     edc:	18 2f       	mov	r17, r24
     ede:	01 c0       	rjmp	.+2      	; 0xee2 <calc_total_enrichment+0x82>
     ee0:	1f ef       	ldi	r17, 0xFF	; 255
     ee2:	20 91 2c 02 	lds	r18, 0x022C
     ee6:	80 91 30 02 	lds	r24, 0x0230
     eea:	48 2f       	mov	r20, r24
     eec:	42 0f       	add	r20, r18
     eee:	82 17       	cp	r24, r18
     ef0:	10 f4       	brcc	.+4      	; 0xef6 <calc_total_enrichment+0x96>
     ef2:	28 1b       	sub	r18, r24
     ef4:	01 c0       	rjmp	.+2      	; 0xef8 <calc_total_enrichment+0x98>
     ef6:	20 e0       	ldi	r18, 0x00	; 0
     ef8:	00 91 14 01 	lds	r16, 0x0114
     efc:	8d e3       	ldi	r24, 0x3D	; 61
     efe:	64 ea       	ldi	r22, 0xA4	; 164
     f00:	0e 94 3d 0a 	call	0x147a	; 0x147a <linear_interp>
     f04:	11 23       	and	r17, r17
     f06:	81 f0       	breq	.+32     	; 0xf28 <calc_total_enrichment+0xc8>
     f08:	20 91 a6 01 	lds	r18, 0x01A6
     f0c:	30 e0       	ldi	r19, 0x00	; 0
     f0e:	90 91 2d 02 	lds	r25, 0x022D
     f12:	29 1b       	sub	r18, r25
     f14:	31 09       	sbc	r19, r1
     f16:	21 0f       	add	r18, r17
     f18:	31 1d       	adc	r19, r1
     f1a:	28 0f       	add	r18, r24
     f1c:	31 1d       	adc	r19, r1
     f1e:	83 2f       	mov	r24, r19
     f20:	99 27       	eor	r25, r25
     f22:	00 97       	sbiw	r24, 0x00	; 0
     f24:	21 f0       	breq	.+8      	; 0xf2e <calc_total_enrichment+0xce>
     f26:	02 c0       	rjmp	.+4      	; 0xf2c <calc_total_enrichment+0xcc>
     f28:	20 e0       	ldi	r18, 0x00	; 0
     f2a:	01 c0       	rjmp	.+2      	; 0xf2e <calc_total_enrichment+0xce>
     f2c:	2f ef       	ldi	r18, 0xFF	; 255
     f2e:	f8 94       	cli
     f30:	20 93 bc 01 	sts	0x01BC, r18
     f34:	20 93 c2 01 	sts	0x01C2, r18
     f38:	78 94       	sei
     f3a:	df 91       	pop	r29
     f3c:	cf 91       	pop	r28
     f3e:	1f 91       	pop	r17
     f40:	0f 91       	pop	r16
     f42:	08 95       	ret

00000f44 <calc_parameters>:
     f44:	0f 93       	push	r16
     f46:	80 91 43 02 	lds	r24, 0x0243
     f4a:	80 ff       	sbrs	r24, 0
     f4c:	07 c0       	rjmp	.+14     	; 0xf5c <calc_parameters+0x18>
     f4e:	e0 91 19 01 	lds	r30, 0x0119
     f52:	f0 e0       	ldi	r31, 0x00	; 0
     f54:	ec 56       	subi	r30, 0x6C	; 108
     f56:	fd 4f       	sbci	r31, 0xFD	; 253
     f58:	e4 91       	lpm	r30, Z+
     f5a:	06 c0       	rjmp	.+12     	; 0xf68 <calc_parameters+0x24>
     f5c:	e0 91 19 01 	lds	r30, 0x0119
     f60:	f0 e0       	ldi	r31, 0x00	; 0
     f62:	ec 56       	subi	r30, 0x6C	; 108
     f64:	fd 4f       	sbci	r31, 0xFD	; 253
     f66:	e4 91       	lpm	r30, Z+
     f68:	e0 93 ab 01 	sts	0x01AB, r30
     f6c:	84 e6       	ldi	r24, 0x64	; 100
     f6e:	80 93 a3 01 	sts	0x01A3, r24
     f72:	e0 91 17 01 	lds	r30, 0x0117
     f76:	f0 e0       	ldi	r31, 0x00	; 0
     f78:	ec 56       	subi	r30, 0x6C	; 108
     f7a:	ff 4f       	sbci	r31, 0xFF	; 255
     f7c:	e4 91       	lpm	r30, Z+
     f7e:	e0 93 ac 01 	sts	0x01AC, r30
     f82:	e0 91 18 01 	lds	r30, 0x0118
     f86:	f0 e0       	ldi	r31, 0x00	; 0
     f88:	ec 56       	subi	r30, 0x6C	; 108
     f8a:	fe 4f       	sbci	r31, 0xFE	; 254
     f8c:	e4 91       	lpm	r30, Z+
     f8e:	e0 93 a1 01 	sts	0x01A1, r30
     f92:	00 91 16 01 	lds	r16, 0x0116
     f96:	80 91 5d 02 	lds	r24, 0x025D
     f9a:	60 91 5e 02 	lds	r22, 0x025E
     f9e:	40 e0       	ldi	r20, 0x00	; 0
     fa0:	2f ef       	ldi	r18, 0xFF	; 255
     fa2:	0e 94 3d 0a 	call	0x147a	; 0x147a <linear_interp>
     fa6:	80 93 ae 01 	sts	0x01AE, r24
     faa:	0f 91       	pop	r16
     fac:	08 95       	ret

00000fae <calc_rpm>:
     fae:	f8 94       	cli
     fb0:	60 91 b0 01 	lds	r22, 0x01B0
     fb4:	70 91 b1 01 	lds	r23, 0x01B1
     fb8:	78 94       	sei
     fba:	90 91 31 02 	lds	r25, 0x0231
     fbe:	80 91 32 02 	lds	r24, 0x0232
     fc2:	61 15       	cp	r22, r1
     fc4:	71 05       	cpc	r23, r1
     fc6:	91 f0       	breq	.+36     	; 0xfec <calc_rpm+0x3e>
     fc8:	39 2f       	mov	r19, r25
     fca:	20 e0       	ldi	r18, 0x00	; 0
     fcc:	90 e0       	ldi	r25, 0x00	; 0
     fce:	82 2b       	or	r24, r18
     fd0:	93 2b       	or	r25, r19
     fd2:	0e 94 33 0c 	call	0x1866	; 0x1866 <__udivmodhi4>
     fd6:	87 2f       	mov	r24, r23
     fd8:	90 e0       	ldi	r25, 0x00	; 0
     fda:	00 97       	sbiw	r24, 0x00	; 0
     fdc:	21 f0       	breq	.+8      	; 0xfe6 <calc_rpm+0x38>
     fde:	8f ef       	ldi	r24, 0xFF	; 255
     fe0:	80 93 b6 01 	sts	0x01B6, r24
     fe4:	08 95       	ret
     fe6:	60 93 b6 01 	sts	0x01B6, r22
     fea:	08 95       	ret
     fec:	10 92 b6 01 	sts	0x01B6, r1
     ff0:	08 95       	ret

00000ff2 <cranking>:
     ff2:	0f 93       	push	r16
     ff4:	f8 94       	cli
     ff6:	80 91 a9 01 	lds	r24, 0x01A9
     ffa:	82 60       	ori	r24, 0x02	; 2
     ffc:	83 7f       	andi	r24, 0xF3	; 243
     ffe:	80 93 a9 01 	sts	0x01A9, r24
    1002:	78 94       	sei
    1004:	80 91 ae 01 	lds	r24, 0x01AE
    1008:	8b 39       	cpi	r24, 0x9B	; 155
    100a:	58 f4       	brcc	.+22     	; 0x1022 <cranking+0x30>
    100c:	00 91 ac 01 	lds	r16, 0x01AC
    1010:	80 e0       	ldi	r24, 0x00	; 0
    1012:	6d ec       	ldi	r22, 0xCD	; 205
    1014:	40 91 0f 02 	lds	r20, 0x020F
    1018:	20 91 10 02 	lds	r18, 0x0210
    101c:	0e 94 3d 0a 	call	0x147a	; 0x147a <linear_interp>
    1020:	01 c0       	rjmp	.+2      	; 0x1024 <cranking+0x32>
    1022:	80 e0       	ldi	r24, 0x00	; 0
    1024:	f8 94       	cli
    1026:	80 93 bc 01 	sts	0x01BC, r24
    102a:	80 93 c2 01 	sts	0x01C2, r24
    102e:	78 94       	sei
    1030:	0f 91       	pop	r16
    1032:	08 95       	ret

00001034 <primepulse>:
    1034:	0f 93       	push	r16
    1036:	80 91 5b 02 	lds	r24, 0x025B
    103a:	88 23       	and	r24, r24
    103c:	21 f4       	brne	.+8      	; 0x1046 <primepulse+0x12>
    103e:	80 91 5c 02 	lds	r24, 0x025C
    1042:	88 23       	and	r24, r24
    1044:	89 f1       	breq	.+98     	; 0x10a8 <primepulse+0x74>
    1046:	00 91 16 01 	lds	r16, 0x0116
    104a:	80 91 5d 02 	lds	r24, 0x025D
    104e:	60 91 5e 02 	lds	r22, 0x025E
    1052:	40 e0       	ldi	r20, 0x00	; 0
    1054:	2f ef       	ldi	r18, 0xFF	; 255
    1056:	0e 94 3d 0a 	call	0x147a	; 0x147a <linear_interp>
    105a:	8b 39       	cpi	r24, 0x9B	; 155
    105c:	28 f5       	brcc	.+74     	; 0x10a8 <primepulse+0x74>
    105e:	e0 91 17 01 	lds	r30, 0x0117
    1062:	f0 e0       	ldi	r31, 0x00	; 0
    1064:	ec 56       	subi	r30, 0x6C	; 108
    1066:	ff 4f       	sbci	r31, 0xFF	; 255
    1068:	04 91       	lpm	r16, Z+
    106a:	80 e0       	ldi	r24, 0x00	; 0
    106c:	6d ec       	ldi	r22, 0xCD	; 205
    106e:	40 91 5b 02 	lds	r20, 0x025B
    1072:	20 91 5c 02 	lds	r18, 0x025C
    1076:	0e 94 3d 0a 	call	0x147a	; 0x147a <linear_interp>
    107a:	80 93 ba 01 	sts	0x01BA, r24
    107e:	80 93 c0 01 	sts	0x01C0, r24
    1082:	10 92 bb 01 	sts	0x01BB, r1
    1086:	10 92 c1 01 	sts	0x01C1, r1
    108a:	80 91 b9 01 	lds	r24, 0x01B9
    108e:	83 60       	ori	r24, 0x03	; 3
    1090:	80 93 b9 01 	sts	0x01B9, r24
    1094:	80 91 bf 01 	lds	r24, 0x01BF
    1098:	83 60       	ori	r24, 0x03	; 3
    109a:	80 93 bf 01 	sts	0x01BF, r24
    109e:	80 91 a9 01 	lds	r24, 0x01A9
    10a2:	81 60       	ori	r24, 0x01	; 1
    10a4:	80 93 a9 01 	sts	0x01A9, r24
    10a8:	0f 91       	pop	r16
    10aa:	08 95       	ret

000010ac <__vector_14>:
    10ac:	1f 92       	push	r1
    10ae:	0f 92       	push	r0
    10b0:	0f b6       	in	r0, 0x3f	; 63
    10b2:	0f 92       	push	r0
    10b4:	11 24       	eor	r1, r1
    10b6:	2f 93       	push	r18
    10b8:	3f 93       	push	r19
    10ba:	4f 93       	push	r20
    10bc:	5f 93       	push	r21
    10be:	6f 93       	push	r22
    10c0:	7f 93       	push	r23
    10c2:	8f 93       	push	r24
    10c4:	9f 93       	push	r25
    10c6:	af 93       	push	r26
    10c8:	bf 93       	push	r27
    10ca:	ef 93       	push	r30
    10cc:	ff 93       	push	r31
    10ce:	80 91 b9 01 	lds	r24, 0x01B9
    10d2:	81 ff       	sbrs	r24, 1
    10d4:	0b c0       	rjmp	.+22     	; 0x10ec <__vector_14+0x40>
    10d6:	80 91 b9 01 	lds	r24, 0x01B9
    10da:	8d 7f       	andi	r24, 0xFD	; 253
    10dc:	80 93 b9 01 	sts	0x01B9, r24
    10e0:	80 91 b9 01 	lds	r24, 0x01B9
    10e4:	85 60       	ori	r24, 0x05	; 5
    10e6:	80 93 b9 01 	sts	0x01B9, r24
    10ea:	29 98       	cbi	0x05, 1	; 5
    10ec:	80 91 bf 01 	lds	r24, 0x01BF
    10f0:	81 ff       	sbrs	r24, 1
    10f2:	0b c0       	rjmp	.+22     	; 0x110a <__vector_14+0x5e>
    10f4:	80 91 bf 01 	lds	r24, 0x01BF
    10f8:	8d 7f       	andi	r24, 0xFD	; 253
    10fa:	80 93 bf 01 	sts	0x01BF, r24
    10fe:	80 91 bf 01 	lds	r24, 0x01BF
    1102:	85 60       	ori	r24, 0x05	; 5
    1104:	80 93 bf 01 	sts	0x01BF, r24
    1108:	2a 98       	cbi	0x05, 2	; 5
    110a:	80 91 b9 01 	lds	r24, 0x01B9
    110e:	82 ff       	sbrs	r24, 2
    1110:	2c c0       	rjmp	.+88     	; 0x116a <__vector_14+0xbe>
    1112:	90 91 bb 01 	lds	r25, 0x01BB
    1116:	80 91 ba 01 	lds	r24, 0x01BA
    111a:	98 17       	cp	r25, r24
    111c:	60 f0       	brcs	.+24     	; 0x1136 <__vector_14+0x8a>
    111e:	80 91 b9 01 	lds	r24, 0x01B9
    1122:	88 7f       	andi	r24, 0xF8	; 248
    1124:	80 93 b9 01 	sts	0x01B9, r24
    1128:	80 91 80 00 	lds	r24, 0x0080
    112c:	8f 73       	andi	r24, 0x3F	; 63
    112e:	80 93 80 00 	sts	0x0080, r24
    1132:	29 9a       	sbi	0x05, 1	; 5
    1134:	15 c0       	rjmp	.+42     	; 0x1160 <__vector_14+0xb4>
    1136:	90 91 bb 01 	lds	r25, 0x01BB
    113a:	80 91 be 01 	lds	r24, 0x01BE
    113e:	98 17       	cp	r25, r24
    1140:	79 f4       	brne	.+30     	; 0x1160 <__vector_14+0xb4>
    1142:	90 91 bd 01 	lds	r25, 0x01BD
    1146:	8a e0       	ldi	r24, 0x0A	; 10
    1148:	98 9f       	mul	r25, r24
    114a:	c0 01       	movw	r24, r0
    114c:	11 24       	eor	r1, r1
    114e:	90 93 89 00 	sts	0x0089, r25
    1152:	80 93 88 00 	sts	0x0088, r24
    1156:	80 91 80 00 	lds	r24, 0x0080
    115a:	80 6c       	ori	r24, 0xC0	; 192
    115c:	80 93 80 00 	sts	0x0080, r24
    1160:	80 91 bb 01 	lds	r24, 0x01BB
    1164:	8f 5f       	subi	r24, 0xFF	; 255
    1166:	80 93 bb 01 	sts	0x01BB, r24
    116a:	80 91 bf 01 	lds	r24, 0x01BF
    116e:	82 ff       	sbrs	r24, 2
    1170:	2c c0       	rjmp	.+88     	; 0x11ca <__vector_14+0x11e>
    1172:	90 91 c1 01 	lds	r25, 0x01C1
    1176:	80 91 c0 01 	lds	r24, 0x01C0
    117a:	98 17       	cp	r25, r24
    117c:	60 f0       	brcs	.+24     	; 0x1196 <__vector_14+0xea>
    117e:	80 91 bf 01 	lds	r24, 0x01BF
    1182:	88 7f       	andi	r24, 0xF8	; 248
    1184:	80 93 bf 01 	sts	0x01BF, r24
    1188:	80 91 80 00 	lds	r24, 0x0080
    118c:	8f 7c       	andi	r24, 0xCF	; 207
    118e:	80 93 80 00 	sts	0x0080, r24
    1192:	2a 9a       	sbi	0x05, 2	; 5
    1194:	15 c0       	rjmp	.+42     	; 0x11c0 <__vector_14+0x114>
    1196:	90 91 c1 01 	lds	r25, 0x01C1
    119a:	80 91 c4 01 	lds	r24, 0x01C4
    119e:	98 17       	cp	r25, r24
    11a0:	79 f4       	brne	.+30     	; 0x11c0 <__vector_14+0x114>
    11a2:	90 91 c3 01 	lds	r25, 0x01C3
    11a6:	8a e0       	ldi	r24, 0x0A	; 10
    11a8:	98 9f       	mul	r25, r24
    11aa:	c0 01       	movw	r24, r0
    11ac:	11 24       	eor	r1, r1
    11ae:	90 93 8b 00 	sts	0x008B, r25
    11b2:	80 93 8a 00 	sts	0x008A, r24
    11b6:	80 91 80 00 	lds	r24, 0x0080
    11ba:	80 63       	ori	r24, 0x30	; 48
    11bc:	80 93 80 00 	sts	0x0080, r24
    11c0:	80 91 c1 01 	lds	r24, 0x01C1
    11c4:	8f 5f       	subi	r24, 0xFF	; 255
    11c6:	80 93 c1 01 	sts	0x01C1, r24
    11ca:	80 91 a9 01 	lds	r24, 0x01A9
    11ce:	80 ff       	sbrs	r24, 0
    11d0:	43 c0       	rjmp	.+134    	; 0x1258 <__vector_14+0x1ac>
    11d2:	80 91 b9 01 	lds	r24, 0x01B9
    11d6:	80 fd       	sbrc	r24, 0
    11d8:	02 c0       	rjmp	.+4      	; 0x11de <__vector_14+0x132>
    11da:	80 91 bf 01 	lds	r24, 0x01BF
    11de:	20 91 b2 01 	lds	r18, 0x01B2
    11e2:	30 91 b3 01 	lds	r19, 0x01B3
    11e6:	80 91 b0 01 	lds	r24, 0x01B0
    11ea:	90 91 b1 01 	lds	r25, 0x01B1
    11ee:	96 95       	lsr	r25
    11f0:	87 95       	ror	r24
    11f2:	28 17       	cp	r18, r24
    11f4:	39 07       	cpc	r19, r25
    11f6:	11 f4       	brne	.+4      	; 0x11fc <__vector_14+0x150>
    11f8:	e0 9a       	sbi	0x1c, 0	; 28
    11fa:	e8 9a       	sbi	0x1d, 0	; 29
    11fc:	80 91 b2 01 	lds	r24, 0x01B2
    1200:	90 91 b3 01 	lds	r25, 0x01B3
    1204:	01 96       	adiw	r24, 0x01	; 1
    1206:	90 93 b3 01 	sts	0x01B3, r25
    120a:	80 93 b2 01 	sts	0x01B2, r24
    120e:	80 91 b2 01 	lds	r24, 0x01B2
    1212:	90 91 b3 01 	lds	r25, 0x01B3
    1216:	89 2f       	mov	r24, r25
    1218:	99 27       	eor	r25, r25
    121a:	84 36       	cpi	r24, 0x64	; 100
    121c:	91 05       	cpc	r25, r1
    121e:	e8 f0       	brcs	.+58     	; 0x125a <__vector_14+0x1ae>
    1220:	e9 ea       	ldi	r30, 0xA9	; 169
    1222:	f1 e0       	ldi	r31, 0x01	; 1
    1224:	10 92 a9 01 	sts	0x01A9, r1
    1228:	80 91 aa 01 	lds	r24, 0x01AA
    122c:	84 61       	ori	r24, 0x14	; 20
    122e:	81 83       	std	Z+1, r24	; 0x01
    1230:	80 91 aa 01 	lds	r24, 0x01AA
    1234:	8f 7d       	andi	r24, 0xDF	; 223
    1236:	81 83       	std	Z+1, r24	; 0x01
    1238:	8a e0       	ldi	r24, 0x0A	; 10
    123a:	80 93 b8 01 	sts	0x01B8, r24
    123e:	10 92 b3 01 	sts	0x01B3, r1
    1242:	10 92 b2 01 	sts	0x01B2, r1
    1246:	15 86       	std	Z+13, r1	; 0x0d
    1248:	85 b1       	in	r24, 0x05	; 5
    124a:	87 7e       	andi	r24, 0xE7	; 231
    124c:	85 b9       	out	0x05, r24	; 5
    124e:	10 92 ba 01 	sts	0x01BA, r1
    1252:	10 92 c0 01 	sts	0x01C0, r1
    1256:	01 c0       	rjmp	.+2      	; 0x125a <__vector_14+0x1ae>
    1258:	e8 9a       	sbi	0x1d, 0	; 29
    125a:	80 91 c5 01 	lds	r24, 0x01C5
    125e:	8f 5f       	subi	r24, 0xFF	; 255
    1260:	80 93 c5 01 	sts	0x01C5, r24
    1264:	8a 30       	cpi	r24, 0x0A	; 10
    1266:	f9 f4       	brne	.+62     	; 0x12a6 <__vector_14+0x1fa>
    1268:	10 92 c5 01 	sts	0x01C5, r1
    126c:	80 91 0c 01 	lds	r24, 0x010C
    1270:	8f 5f       	subi	r24, 0xFF	; 255
    1272:	80 93 0c 01 	sts	0x010C, r24
    1276:	85 30       	cpi	r24, 0x05	; 5
    1278:	21 f4       	brne	.+8      	; 0x1282 <__vector_14+0x1d6>
    127a:	10 92 0c 01 	sts	0x010C, r1
    127e:	0e 94 a6 02 	call	0x54c	; 0x54c <startADC>
    1282:	80 91 c8 01 	lds	r24, 0x01C8
    1286:	8f 5f       	subi	r24, 0xFF	; 255
    1288:	80 93 c8 01 	sts	0x01C8, r24
    128c:	84 36       	cpi	r24, 0x64	; 100
    128e:	59 f4       	brne	.+22     	; 0x12a6 <__vector_14+0x1fa>
    1290:	10 92 c8 01 	sts	0x01C8, r1
    1294:	80 91 9d 01 	lds	r24, 0x019D
    1298:	8f 5f       	subi	r24, 0xFF	; 255
    129a:	80 93 9d 01 	sts	0x019D, r24
    129e:	80 91 ae 01 	lds	r24, 0x01AE
    12a2:	80 93 af 01 	sts	0x01AF, r24
    12a6:	80 91 c6 01 	lds	r24, 0x01C6
    12aa:	90 91 c7 01 	lds	r25, 0x01C7
    12ae:	01 96       	adiw	r24, 0x01	; 1
    12b0:	90 93 c7 01 	sts	0x01C7, r25
    12b4:	80 93 c6 01 	sts	0x01C6, r24
    12b8:	23 e0       	ldi	r18, 0x03	; 3
    12ba:	88 3e       	cpi	r24, 0xE8	; 232
    12bc:	92 07       	cpc	r25, r18
    12be:	a1 f5       	brne	.+104    	; 0x1328 <__vector_14+0x27c>
    12c0:	10 92 c7 01 	sts	0x01C7, r1
    12c4:	10 92 c6 01 	sts	0x01C6, r1
    12c8:	80 91 c9 01 	lds	r24, 0x01C9
    12cc:	90 91 ca 01 	lds	r25, 0x01CA
    12d0:	01 96       	adiw	r24, 0x01	; 1
    12d2:	90 93 ca 01 	sts	0x01CA, r25
    12d6:	80 93 c9 01 	sts	0x01C9, r24
    12da:	80 91 aa 01 	lds	r24, 0x01AA
    12de:	85 ff       	sbrs	r24, 5
    12e0:	0f c0       	rjmp	.+30     	; 0x1300 <__vector_14+0x254>
    12e2:	80 91 b8 01 	lds	r24, 0x01B8
    12e6:	88 23       	and	r24, r24
    12e8:	31 f0       	breq	.+12     	; 0x12f6 <__vector_14+0x24a>
    12ea:	80 91 b8 01 	lds	r24, 0x01B8
    12ee:	81 50       	subi	r24, 0x01	; 1
    12f0:	80 93 b8 01 	sts	0x01B8, r24
    12f4:	05 c0       	rjmp	.+10     	; 0x1300 <__vector_14+0x254>
    12f6:	80 91 aa 01 	lds	r24, 0x01AA
    12fa:	8f 7e       	andi	r24, 0xEF	; 239
    12fc:	80 93 aa 01 	sts	0x01AA, r24
    1300:	80 91 aa 01 	lds	r24, 0x01AA
    1304:	82 ff       	sbrs	r24, 2
    1306:	10 c0       	rjmp	.+32     	; 0x1328 <__vector_14+0x27c>
    1308:	80 91 c9 01 	lds	r24, 0x01C9
    130c:	90 91 ca 01 	lds	r25, 0x01CA
    1310:	8e 31       	cpi	r24, 0x1E	; 30
    1312:	91 05       	cpc	r25, r1
    1314:	49 f4       	brne	.+18     	; 0x1328 <__vector_14+0x27c>
    1316:	80 91 a9 01 	lds	r24, 0x01A9
    131a:	80 ff       	sbrs	r24, 0
    131c:	05 c0       	rjmp	.+10     	; 0x1328 <__vector_14+0x27c>
    131e:	80 91 aa 01 	lds	r24, 0x01AA
    1322:	8b 7f       	andi	r24, 0xFB	; 251
    1324:	80 93 aa 01 	sts	0x01AA, r24
    1328:	ff 91       	pop	r31
    132a:	ef 91       	pop	r30
    132c:	bf 91       	pop	r27
    132e:	af 91       	pop	r26
    1330:	9f 91       	pop	r25
    1332:	8f 91       	pop	r24
    1334:	7f 91       	pop	r23
    1336:	6f 91       	pop	r22
    1338:	5f 91       	pop	r21
    133a:	4f 91       	pop	r20
    133c:	3f 91       	pop	r19
    133e:	2f 91       	pop	r18
    1340:	0f 90       	pop	r0
    1342:	0f be       	out	0x3f, r0	; 63
    1344:	0f 90       	pop	r0
    1346:	1f 90       	pop	r1
    1348:	18 95       	reti

0000134a <__vector_1>:
    134a:	1f 92       	push	r1
    134c:	0f 92       	push	r0
    134e:	0f b6       	in	r0, 0x3f	; 63
    1350:	0f 92       	push	r0
    1352:	11 24       	eor	r1, r1
    1354:	2f 93       	push	r18
    1356:	3f 93       	push	r19
    1358:	8f 93       	push	r24
    135a:	9f 93       	push	r25
    135c:	e8 98       	cbi	0x1d, 0	; 29
    135e:	80 91 9f 01 	lds	r24, 0x019F
    1362:	8f 3f       	cpi	r24, 0xFF	; 255
    1364:	19 f0       	breq	.+6      	; 0x136c <__vector_1+0x22>
    1366:	8f 5f       	subi	r24, 0xFF	; 255
    1368:	80 93 9f 01 	sts	0x019F, r24
    136c:	80 91 a8 01 	lds	r24, 0x01A8
    1370:	8f 3f       	cpi	r24, 0xFF	; 255
    1372:	19 f0       	breq	.+6      	; 0x137a <__vector_1+0x30>
    1374:	8f 5f       	subi	r24, 0xFF	; 255
    1376:	80 93 a8 01 	sts	0x01A8, r24
    137a:	80 91 b2 01 	lds	r24, 0x01B2
    137e:	90 91 b3 01 	lds	r25, 0x01B3
    1382:	20 91 b0 01 	lds	r18, 0x01B0
    1386:	30 91 b1 01 	lds	r19, 0x01B1
    138a:	82 1b       	sub	r24, r18
    138c:	93 0b       	sbc	r25, r19
    138e:	90 93 b5 01 	sts	0x01B5, r25
    1392:	80 93 b4 01 	sts	0x01B4, r24
    1396:	80 91 b2 01 	lds	r24, 0x01B2
    139a:	90 91 b3 01 	lds	r25, 0x01B3
    139e:	90 93 b1 01 	sts	0x01B1, r25
    13a2:	80 93 b0 01 	sts	0x01B0, r24
    13a6:	10 92 b3 01 	sts	0x01B3, r1
    13aa:	10 92 b2 01 	sts	0x01B2, r1
    13ae:	80 91 aa 01 	lds	r24, 0x01AA
    13b2:	81 60       	ori	r24, 0x01	; 1
    13b4:	80 93 aa 01 	sts	0x01AA, r24
    13b8:	2b 9a       	sbi	0x05, 3	; 5
    13ba:	80 91 a9 01 	lds	r24, 0x01A9
    13be:	81 60       	ori	r24, 0x01	; 1
    13c0:	80 93 a9 01 	sts	0x01A9, r24
    13c4:	80 91 a9 01 	lds	r24, 0x01A9
    13c8:	81 ff       	sbrs	r24, 1
    13ca:	06 c0       	rjmp	.+12     	; 0x13d8 <__vector_1+0x8e>
    13cc:	80 91 a9 01 	lds	r24, 0x01A9
    13d0:	8f 7c       	andi	r24, 0xCF	; 207
    13d2:	80 93 a9 01 	sts	0x01A9, r24
    13d6:	0e c0       	rjmp	.+28     	; 0x13f4 <__vector_1+0xaa>
    13d8:	80 91 0a 01 	lds	r24, 0x010A
    13dc:	8f 5f       	subi	r24, 0xFF	; 255
    13de:	80 93 0a 01 	sts	0x010A, r24
    13e2:	90 91 2a 02 	lds	r25, 0x022A
    13e6:	89 17       	cp	r24, r25
    13e8:	29 f0       	breq	.+10     	; 0x13f4 <__vector_1+0xaa>
    13ea:	88 30       	cpi	r24, 0x08	; 8
    13ec:	e9 f5       	brne	.+122    	; 0x1468 <__vector_1+0x11e>
    13ee:	10 92 0a 01 	sts	0x010A, r1
    13f2:	3a c0       	rjmp	.+116    	; 0x1468 <__vector_1+0x11e>
    13f4:	10 92 0a 01 	sts	0x010A, r1
    13f8:	80 91 a9 01 	lds	r24, 0x01A9
    13fc:	81 fd       	sbrc	r24, 1
    13fe:	04 c0       	rjmp	.+8      	; 0x1408 <__vector_1+0xbe>
    1400:	80 91 2b 02 	lds	r24, 0x022B
    1404:	88 23       	and	r24, r24
    1406:	91 f4       	brne	.+36     	; 0x142c <__vector_1+0xe2>
    1408:	80 91 bc 01 	lds	r24, 0x01BC
    140c:	80 93 ba 01 	sts	0x01BA, r24
    1410:	80 91 c2 01 	lds	r24, 0x01C2
    1414:	80 93 c0 01 	sts	0x01C0, r24
    1418:	10 92 bb 01 	sts	0x01BB, r1
    141c:	10 92 c1 01 	sts	0x01C1, r1
    1420:	80 91 b9 01 	lds	r24, 0x01B9
    1424:	83 60       	ori	r24, 0x03	; 3
    1426:	80 93 b9 01 	sts	0x01B9, r24
    142a:	0d c0       	rjmp	.+26     	; 0x1446 <__vector_1+0xfc>
    142c:	80 91 0b 01 	lds	r24, 0x010B
    1430:	8f 5f       	subi	r24, 0xFF	; 255
    1432:	80 93 0b 01 	sts	0x010B, r24
    1436:	80 ff       	sbrs	r24, 0
    1438:	0c c0       	rjmp	.+24     	; 0x1452 <__vector_1+0x108>
    143a:	80 91 c2 01 	lds	r24, 0x01C2
    143e:	80 93 c0 01 	sts	0x01C0, r24
    1442:	10 92 c1 01 	sts	0x01C1, r1
    1446:	80 91 bf 01 	lds	r24, 0x01BF
    144a:	83 60       	ori	r24, 0x03	; 3
    144c:	80 93 bf 01 	sts	0x01BF, r24
    1450:	0b c0       	rjmp	.+22     	; 0x1468 <__vector_1+0x11e>
    1452:	80 91 bc 01 	lds	r24, 0x01BC
    1456:	80 93 ba 01 	sts	0x01BA, r24
    145a:	10 92 bb 01 	sts	0x01BB, r1
    145e:	80 91 b9 01 	lds	r24, 0x01B9
    1462:	83 60       	ori	r24, 0x03	; 3
    1464:	80 93 b9 01 	sts	0x01B9, r24
    1468:	9f 91       	pop	r25
    146a:	8f 91       	pop	r24
    146c:	3f 91       	pop	r19
    146e:	2f 91       	pop	r18
    1470:	0f 90       	pop	r0
    1472:	0f be       	out	0x3f, r0	; 63
    1474:	0f 90       	pop	r0
    1476:	1f 90       	pop	r1
    1478:	18 95       	reti

0000147a <linear_interp>:
    147a:	0f 93       	push	r16
    147c:	1f 93       	push	r17
    147e:	14 2f       	mov	r17, r20
    1480:	80 17       	cp	r24, r16
    1482:	d8 f5       	brcc	.+118    	; 0x14fa <linear_interp+0x80>
    1484:	06 17       	cp	r16, r22
    1486:	c0 f5       	brcc	.+112    	; 0x14f8 <linear_interp+0x7e>
    1488:	68 1b       	sub	r22, r24
    148a:	b9 f1       	breq	.+110    	; 0x14fa <linear_interp+0x80>
    148c:	08 1b       	sub	r16, r24
    148e:	40 2f       	mov	r20, r16
    1490:	50 e0       	ldi	r21, 0x00	; 0
    1492:	81 2f       	mov	r24, r17
    1494:	90 e0       	ldi	r25, 0x00	; 0
    1496:	e2 2f       	mov	r30, r18
    1498:	f0 e0       	ldi	r31, 0x00	; 0
    149a:	06 2f       	mov	r16, r22
    149c:	06 95       	lsr	r16
    149e:	21 17       	cp	r18, r17
    14a0:	b0 f4       	brcc	.+44     	; 0x14ce <linear_interp+0x54>
    14a2:	8e 1b       	sub	r24, r30
    14a4:	9f 0b       	sbc	r25, r31
    14a6:	9c 01       	movw	r18, r24
    14a8:	42 9f       	mul	r20, r18
    14aa:	c0 01       	movw	r24, r0
    14ac:	43 9f       	mul	r20, r19
    14ae:	90 0d       	add	r25, r0
    14b0:	52 9f       	mul	r21, r18
    14b2:	90 0d       	add	r25, r0
    14b4:	11 24       	eor	r1, r1
    14b6:	70 e0       	ldi	r23, 0x00	; 0
    14b8:	0e 94 47 0c 	call	0x188e	; 0x188e <__divmodhi4>
    14bc:	40 2f       	mov	r20, r16
    14be:	50 e0       	ldi	r21, 0x00	; 0
    14c0:	84 17       	cp	r24, r20
    14c2:	95 07       	cpc	r25, r21
    14c4:	14 f0       	brlt	.+4      	; 0x14ca <linear_interp+0x50>
    14c6:	6f 5f       	subi	r22, 0xFF	; 255
    14c8:	7f 4f       	sbci	r23, 0xFF	; 255
    14ca:	16 1b       	sub	r17, r22
    14cc:	16 c0       	rjmp	.+44     	; 0x14fa <linear_interp+0x80>
    14ce:	e8 1b       	sub	r30, r24
    14d0:	f9 0b       	sbc	r31, r25
    14d2:	4e 9f       	mul	r20, r30
    14d4:	c0 01       	movw	r24, r0
    14d6:	4f 9f       	mul	r20, r31
    14d8:	90 0d       	add	r25, r0
    14da:	5e 9f       	mul	r21, r30
    14dc:	90 0d       	add	r25, r0
    14de:	11 24       	eor	r1, r1
    14e0:	70 e0       	ldi	r23, 0x00	; 0
    14e2:	0e 94 47 0c 	call	0x188e	; 0x188e <__divmodhi4>
    14e6:	40 2f       	mov	r20, r16
    14e8:	50 e0       	ldi	r21, 0x00	; 0
    14ea:	84 17       	cp	r24, r20
    14ec:	95 07       	cpc	r25, r21
    14ee:	14 f0       	brlt	.+4      	; 0x14f4 <linear_interp+0x7a>
    14f0:	6f 5f       	subi	r22, 0xFF	; 255
    14f2:	7f 4f       	sbci	r23, 0xFF	; 255
    14f4:	16 0f       	add	r17, r22
    14f6:	01 c0       	rjmp	.+2      	; 0x14fa <linear_interp+0x80>
    14f8:	12 2f       	mov	r17, r18
    14fa:	81 2f       	mov	r24, r17
    14fc:	1f 91       	pop	r17
    14fe:	0f 91       	pop	r16
    1500:	08 95       	ret

00001502 <search_table>:
    1502:	cf 93       	push	r28
    1504:	df 93       	push	r29
    1506:	fc 01       	movw	r30, r24
    1508:	d9 01       	movw	r26, r18
    150a:	12 96       	adiw	r26, 0x02	; 2
    150c:	1c 92       	st	X, r1
    150e:	12 97       	sbiw	r26, 0x02	; 2
    1510:	ec 01       	movw	r28, r24
    1512:	91 e0       	ldi	r25, 0x01	; 1
    1514:	80 e0       	ldi	r24, 0x00	; 0
    1516:	09 c0       	rjmp	.+18     	; 0x152a <search_table+0x28>
    1518:	12 96       	adiw	r26, 0x02	; 2
    151a:	8c 93       	st	X, r24
    151c:	12 97       	sbiw	r26, 0x02	; 2
    151e:	29 91       	ld	r18, Y+
    1520:	91 e0       	ldi	r25, 0x01	; 1
    1522:	42 17       	cp	r20, r18
    1524:	08 f4       	brcc	.+2      	; 0x1528 <search_table+0x26>
    1526:	90 e0       	ldi	r25, 0x00	; 0
    1528:	8f 5f       	subi	r24, 0xFF	; 255
    152a:	86 17       	cp	r24, r22
    152c:	10 f4       	brcc	.+4      	; 0x1532 <search_table+0x30>
    152e:	99 23       	and	r25, r25
    1530:	99 f7       	brne	.-26     	; 0x1518 <search_table+0x16>
    1532:	12 96       	adiw	r26, 0x02	; 2
    1534:	8c 91       	ld	r24, X
    1536:	12 97       	sbiw	r26, 0x02	; 2
    1538:	88 23       	and	r24, r24
    153a:	59 f4       	brne	.+22     	; 0x1552 <search_table+0x50>
    153c:	80 81       	ld	r24, Z
    153e:	8c 93       	st	X, r24
    1540:	81 81       	ldd	r24, Z+1	; 0x01
    1542:	11 96       	adiw	r26, 0x01	; 1
    1544:	8c 93       	st	X, r24
    1546:	11 97       	sbiw	r26, 0x01	; 1
    1548:	81 e0       	ldi	r24, 0x01	; 1
    154a:	12 96       	adiw	r26, 0x02	; 2
    154c:	8c 93       	st	X, r24
    154e:	12 97       	sbiw	r26, 0x02	; 2
    1550:	0a c0       	rjmp	.+20     	; 0x1566 <search_table+0x64>
    1552:	e8 0f       	add	r30, r24
    1554:	f1 1d       	adc	r31, r1
    1556:	ef 01       	movw	r28, r30
    1558:	21 97       	sbiw	r28, 0x01	; 1
    155a:	88 81       	ld	r24, Y
    155c:	8c 93       	st	X, r24
    155e:	80 81       	ld	r24, Z
    1560:	11 96       	adiw	r26, 0x01	; 1
    1562:	8c 93       	st	X, r24
    1564:	11 97       	sbiw	r26, 0x01	; 1
    1566:	df 91       	pop	r29
    1568:	cf 91       	pop	r28
    156a:	08 95       	ret

0000156c <mult_div100>:
    156c:	90 e0       	ldi	r25, 0x00	; 0
    156e:	9c 01       	movw	r18, r24
    1570:	62 9f       	mul	r22, r18
    1572:	c0 01       	movw	r24, r0
    1574:	63 9f       	mul	r22, r19
    1576:	90 0d       	add	r25, r0
    1578:	72 9f       	mul	r23, r18
    157a:	90 0d       	add	r25, r0
    157c:	11 24       	eor	r1, r1
    157e:	64 e6       	ldi	r22, 0x64	; 100
    1580:	70 e0       	ldi	r23, 0x00	; 0
    1582:	0e 94 47 0c 	call	0x188e	; 0x188e <__divmodhi4>
    1586:	82 33       	cpi	r24, 0x32	; 50
    1588:	91 05       	cpc	r25, r1
    158a:	14 f0       	brlt	.+4      	; 0x1590 <mult_div100+0x24>
    158c:	6f 5f       	subi	r22, 0xFF	; 255
    158e:	7f 4f       	sbci	r23, 0xFF	; 255
    1590:	cb 01       	movw	r24, r22
    1592:	08 95       	ret

00001594 <setup>:
    1594:	83 e6       	ldi	r24, 0x63	; 99
    1596:	85 b9       	out	0x05, r24	; 5
    1598:	8c ef       	ldi	r24, 0xFC	; 252
    159a:	84 b9       	out	0x04, r24	; 4
    159c:	8f ef       	ldi	r24, 0xFF	; 255
    159e:	8b b9       	out	0x0b, r24	; 11
    15a0:	1a b8       	out	0x0a, r1	; 10
    15a2:	18 b8       	out	0x08, r1	; 8
    15a4:	17 b8       	out	0x07, r1	; 7
    15a6:	0e 94 c7 02 	call	0x58e	; 0x58e <initSensors>
    15aa:	22 e0       	ldi	r18, 0x02	; 2
    15ac:	24 bd       	out	0x24, r18	; 36
    15ae:	25 bd       	out	0x25, r18	; 37
    15b0:	87 ec       	ldi	r24, 0xC7	; 199
    15b2:	87 bd       	out	0x27, r24	; 39
    15b4:	20 93 6e 00 	sts	0x006E, r18
    15b8:	20 93 80 00 	sts	0x0080, r18
    15bc:	89 e1       	ldi	r24, 0x19	; 25
    15be:	80 93 81 00 	sts	0x0081, r24
    15c2:	88 ee       	ldi	r24, 0xE8	; 232
    15c4:	93 e0       	ldi	r25, 0x03	; 3
    15c6:	90 93 87 00 	sts	0x0087, r25
    15ca:	80 93 86 00 	sts	0x0086, r24
    15ce:	20 93 69 00 	sts	0x0069, r18
    15d2:	81 e0       	ldi	r24, 0x01	; 1
    15d4:	8d bb       	out	0x1d, r24	; 29
    15d6:	0e 94 5c 04 	call	0x8b8	; 0x8b8 <initUART>
    15da:	10 92 a9 01 	sts	0x01A9, r1
    15de:	84 e1       	ldi	r24, 0x14	; 20
    15e0:	80 93 aa 01 	sts	0x01AA, r24
    15e4:	10 92 b6 01 	sts	0x01B6, r1
    15e8:	10 92 b1 01 	sts	0x01B1, r1
    15ec:	10 92 b0 01 	sts	0x01B0, r1
    15f0:	10 92 ba 01 	sts	0x01BA, r1
    15f4:	10 92 c0 01 	sts	0x01C0, r1
    15f8:	8a e0       	ldi	r24, 0x0A	; 10
    15fa:	80 93 b8 01 	sts	0x01B8, r24
    15fe:	0e 94 f4 04 	call	0x9e8	; 0x9e8 <init_fuelcalc>
    1602:	0e 94 59 0b 	call	0x16b2	; 0x16b2 <loadConfig>
    1606:	80 91 19 01 	lds	r24, 0x0119
    160a:	80 93 1a 01 	sts	0x011A, r24
    160e:	2b 9a       	sbi	0x05, 3	; 5
    1610:	0e 94 1a 08 	call	0x1034	; 0x1034 <primepulse>
    1614:	78 94       	sei
    1616:	08 95       	ret

00001618 <main>:
    1618:	0f 93       	push	r16
    161a:	1f 93       	push	r17
    161c:	0e 94 ca 0a 	call	0x1594	; 0x1594 <setup>
    1620:	0a e0       	ldi	r16, 0x0A	; 10
    1622:	11 e0       	ldi	r17, 0x01	; 1
    1624:	0e 94 a2 07 	call	0xf44	; 0xf44 <calc_parameters>
    1628:	0e 94 69 02 	call	0x4d2	; 0x4d2 <coolant_fan>
    162c:	0e 94 80 02 	call	0x500	; 0x500 <check_fast_idle>
    1630:	80 91 a9 01 	lds	r24, 0x01A9
    1634:	80 ff       	sbrs	r24, 0
    1636:	3a c0       	rjmp	.+116    	; 0x16ac <main+0x94>
    1638:	80 91 b0 01 	lds	r24, 0x01B0
    163c:	90 91 b1 01 	lds	r25, 0x01B1
    1640:	00 97       	sbiw	r24, 0x00	; 0
    1642:	a1 f1       	breq	.+104    	; 0x16ac <main+0x94>
    1644:	80 91 aa 01 	lds	r24, 0x01AA
    1648:	80 ff       	sbrs	r24, 0
    164a:	09 c0       	rjmp	.+18     	; 0x165e <main+0x46>
    164c:	f8 94       	cli
    164e:	80 91 aa 01 	lds	r24, 0x01AA
    1652:	8e 7f       	andi	r24, 0xFE	; 254
    1654:	80 93 aa 01 	sts	0x01AA, r24
    1658:	78 94       	sei
    165a:	0e 94 d7 07 	call	0xfae	; 0xfae <calc_rpm>
    165e:	80 91 aa 01 	lds	r24, 0x01AA
    1662:	84 ff       	sbrs	r24, 4
    1664:	12 c0       	rjmp	.+36     	; 0x168a <main+0x72>
    1666:	90 91 b6 01 	lds	r25, 0x01B6
    166a:	80 91 59 02 	lds	r24, 0x0259
    166e:	89 17       	cp	r24, r25
    1670:	60 f0       	brcs	.+24     	; 0x168a <main+0x72>
    1672:	0e 94 f9 07 	call	0xff2	; 0xff2 <cranking>
    1676:	f8 94       	cli
    1678:	80 91 aa 01 	lds	r24, 0x01AA
    167c:	8f 7d       	andi	r24, 0xDF	; 223
    167e:	80 93 aa 01 	sts	0x01AA, r24
    1682:	00 93 b8 01 	sts	0x01B8, r16
    1686:	78 94       	sei
    1688:	11 c0       	rjmp	.+34     	; 0x16ac <main+0x94>
    168a:	f8 94       	cli
    168c:	80 91 aa 01 	lds	r24, 0x01AA
    1690:	80 62       	ori	r24, 0x20	; 32
    1692:	80 93 aa 01 	sts	0x01AA, r24
    1696:	78 94       	sei
    1698:	0e 94 06 05 	call	0xa0c	; 0xa0c <warmup_enrich>
    169c:	0e 94 77 05 	call	0xaee	; 0xaee <tps_acc_enrich>
    16a0:	0e 94 68 06 	call	0xcd0	; 0xcd0 <o2>
    16a4:	0e 94 c0 06 	call	0xd80	; 0xd80 <ve_table_lookup>
    16a8:	0e 94 30 07 	call	0xe60	; 0xe60 <calc_total_enrichment>
    16ac:	10 93 cc 01 	sts	0x01CC, r17
    16b0:	b9 cf       	rjmp	.-142    	; 0x1624 <main+0xc>

000016b2 <loadConfig>:
    16b2:	8f ec       	ldi	r24, 0xCF	; 207
    16b4:	91 e0       	ldi	r25, 0x01	; 1
    16b6:	60 e0       	ldi	r22, 0x00	; 0
    16b8:	70 e0       	ldi	r23, 0x00	; 0
    16ba:	4f e9       	ldi	r20, 0x9F	; 159
    16bc:	50 e0       	ldi	r21, 0x00	; 0
    16be:	0e 94 5a 0c 	call	0x18b4	; 0x18b4 <__eerd_block_m328p>
    16c2:	90 91 2f 02 	lds	r25, 0x022F
    16c6:	90 93 be 01 	sts	0x01BE, r25
    16ca:	80 91 2e 02 	lds	r24, 0x022E
    16ce:	80 93 bd 01 	sts	0x01BD, r24
    16d2:	90 93 c4 01 	sts	0x01C4, r25
    16d6:	80 93 c3 01 	sts	0x01C3, r24
    16da:	5f e0       	ldi	r21, 0x0F	; 15
    16dc:	50 93 5a 02 	sts	0x025A, r21
    16e0:	83 e0       	ldi	r24, 0x03	; 3
    16e2:	80 93 59 02 	sts	0x0259, r24
    16e6:	80 91 46 02 	lds	r24, 0x0246
    16ea:	80 93 5c 02 	sts	0x025C, r24
    16ee:	80 93 5b 02 	sts	0x025B, r24
    16f2:	10 92 5d 02 	sts	0x025D, r1
    16f6:	8f ef       	ldi	r24, 0xFF	; 255
    16f8:	80 93 5e 02 	sts	0x025E, r24
    16fc:	10 92 4b 02 	sts	0x024B, r1
    1700:	84 e1       	ldi	r24, 0x14	; 20
    1702:	80 93 4c 02 	sts	0x024C, r24
    1706:	38 e2       	ldi	r19, 0x28	; 40
    1708:	30 93 4d 02 	sts	0x024D, r19
    170c:	9c e3       	ldi	r25, 0x3C	; 60
    170e:	90 93 4e 02 	sts	0x024E, r25
    1712:	40 e5       	ldi	r20, 0x50	; 80
    1714:	40 93 4f 02 	sts	0x024F, r20
    1718:	24 e6       	ldi	r18, 0x64	; 100
    171a:	20 93 50 02 	sts	0x0250, r18
    171e:	98 e7       	ldi	r25, 0x78	; 120
    1720:	90 93 51 02 	sts	0x0251, r25
    1724:	9c e8       	ldi	r25, 0x8C	; 140
    1726:	90 93 52 02 	sts	0x0252, r25
    172a:	9a ea       	ldi	r25, 0xAA	; 170
    172c:	90 93 53 02 	sts	0x0253, r25
    1730:	98 ec       	ldi	r25, 0xC8	; 200
    1732:	90 93 54 02 	sts	0x0254, r25
    1736:	95 e0       	ldi	r25, 0x05	; 5
    1738:	90 93 55 02 	sts	0x0255, r25
    173c:	80 93 56 02 	sts	0x0256, r24
    1740:	30 93 57 02 	sts	0x0257, r19
    1744:	6d e4       	ldi	r22, 0x4D	; 77
    1746:	60 93 58 02 	sts	0x0258, r22
    174a:	6a ee       	ldi	r22, 0xEA	; 234
    174c:	60 93 61 02 	sts	0x0261, r22
    1750:	90 93 62 02 	sts	0x0262, r25
    1754:	68 ed       	ldi	r22, 0xD8	; 216
    1756:	60 93 63 02 	sts	0x0263, r22
    175a:	60 e9       	ldi	r22, 0x90	; 144
    175c:	60 93 64 02 	sts	0x0264, r22
    1760:	69 e0       	ldi	r22, 0x09	; 9
    1762:	60 93 65 02 	sts	0x0265, r22
    1766:	50 93 66 02 	sts	0x0266, r21
    176a:	30 93 67 02 	sts	0x0267, r19
    176e:	90 93 68 02 	sts	0x0268, r25
    1772:	90 93 69 02 	sts	0x0269, r25
    1776:	91 e0       	ldi	r25, 0x01	; 1
    1778:	90 93 6a 02 	sts	0x026A, r25
    177c:	40 93 6b 02 	sts	0x026B, r20
    1780:	80 93 6c 02 	sts	0x026C, r24
    1784:	20 93 6d 02 	sts	0x026D, r18
    1788:	20 93 5f 02 	sts	0x025F, r18
    178c:	80 93 60 02 	sts	0x0260, r24
    1790:	08 95       	ret

00001792 <storeConfig>:
    1792:	80 91 ce 01 	lds	r24, 0x01CE
    1796:	88 23       	and	r24, r24
    1798:	41 f4       	brne	.+16     	; 0x17aa <storeConfig+0x18>
    179a:	10 92 cd 01 	sts	0x01CD, r1
    179e:	81 e0       	ldi	r24, 0x01	; 1
    17a0:	80 93 ce 01 	sts	0x01CE, r24
    17a4:	fb 9a       	sbi	0x1f, 3	; 31
    17a6:	80 e0       	ldi	r24, 0x00	; 0
    17a8:	08 95       	ret
    17aa:	8f ef       	ldi	r24, 0xFF	; 255
    17ac:	08 95       	ret

000017ae <__vector_22>:
    17ae:	1f 92       	push	r1
    17b0:	0f 92       	push	r0
    17b2:	0f b6       	in	r0, 0x3f	; 63
    17b4:	0f 92       	push	r0
    17b6:	11 24       	eor	r1, r1
    17b8:	0f 93       	push	r16
    17ba:	1f 93       	push	r17
    17bc:	2f 93       	push	r18
    17be:	3f 93       	push	r19
    17c0:	4f 93       	push	r20
    17c2:	5f 93       	push	r21
    17c4:	6f 93       	push	r22
    17c6:	7f 93       	push	r23
    17c8:	8f 93       	push	r24
    17ca:	9f 93       	push	r25
    17cc:	af 93       	push	r26
    17ce:	bf 93       	push	r27
    17d0:	cf 93       	push	r28
    17d2:	df 93       	push	r29
    17d4:	ef 93       	push	r30
    17d6:	ff 93       	push	r31
    17d8:	80 91 cd 01 	lds	r24, 0x01CD
    17dc:	c8 2f       	mov	r28, r24
    17de:	d0 e0       	ldi	r29, 0x00	; 0
    17e0:	c0 50       	subi	r28, 0x00	; 0
    17e2:	d0 40       	sbci	r29, 0x00	; 0
    17e4:	00 91 cd 01 	lds	r16, 0x01CD
    17e8:	ce 01       	movw	r24, r28
    17ea:	0e 94 6a 0c 	call	0x18d4	; 0x18d4 <__eerd_byte_m328p>
    17ee:	10 e0       	ldi	r17, 0x00	; 0
    17f0:	01 53       	subi	r16, 0x31	; 49
    17f2:	1e 4f       	sbci	r17, 0xFE	; 254
    17f4:	09 c0       	rjmp	.+18     	; 0x1808 <__vector_22+0x5a>
    17f6:	80 91 cd 01 	lds	r24, 0x01CD
    17fa:	8f 5f       	subi	r24, 0xFF	; 255
    17fc:	80 93 cd 01 	sts	0x01CD, r24
    1800:	21 96       	adiw	r28, 0x01	; 1
    1802:	ce 01       	movw	r24, r28
    1804:	0e 94 6a 0c 	call	0x18d4	; 0x18d4 <__eerd_byte_m328p>
    1808:	f8 01       	movw	r30, r16
    180a:	61 91       	ld	r22, Z+
    180c:	8f 01       	movw	r16, r30
    180e:	86 17       	cp	r24, r22
    1810:	21 f0       	breq	.+8      	; 0x181a <__vector_22+0x6c>
    1812:	ce 01       	movw	r24, r28
    1814:	0e 94 72 0c 	call	0x18e4	; 0x18e4 <__eewr_byte_m328p>
    1818:	04 c0       	rjmp	.+8      	; 0x1822 <__vector_22+0x74>
    181a:	80 91 cd 01 	lds	r24, 0x01CD
    181e:	8e 39       	cpi	r24, 0x9E	; 158
    1820:	51 f7       	brne	.-44     	; 0x17f6 <__vector_22+0x48>
    1822:	80 91 cd 01 	lds	r24, 0x01CD
    1826:	8e 39       	cpi	r24, 0x9E	; 158
    1828:	21 f4       	brne	.+8      	; 0x1832 <__vector_22+0x84>
    182a:	fb 98       	cbi	0x1f, 3	; 31
    182c:	10 92 ce 01 	sts	0x01CE, r1
    1830:	05 c0       	rjmp	.+10     	; 0x183c <__vector_22+0x8e>
    1832:	80 91 cd 01 	lds	r24, 0x01CD
    1836:	8f 5f       	subi	r24, 0xFF	; 255
    1838:	80 93 cd 01 	sts	0x01CD, r24
    183c:	ff 91       	pop	r31
    183e:	ef 91       	pop	r30
    1840:	df 91       	pop	r29
    1842:	cf 91       	pop	r28
    1844:	bf 91       	pop	r27
    1846:	af 91       	pop	r26
    1848:	9f 91       	pop	r25
    184a:	8f 91       	pop	r24
    184c:	7f 91       	pop	r23
    184e:	6f 91       	pop	r22
    1850:	5f 91       	pop	r21
    1852:	4f 91       	pop	r20
    1854:	3f 91       	pop	r19
    1856:	2f 91       	pop	r18
    1858:	1f 91       	pop	r17
    185a:	0f 91       	pop	r16
    185c:	0f 90       	pop	r0
    185e:	0f be       	out	0x3f, r0	; 63
    1860:	0f 90       	pop	r0
    1862:	1f 90       	pop	r1
    1864:	18 95       	reti

00001866 <__udivmodhi4>:
    1866:	aa 1b       	sub	r26, r26
    1868:	bb 1b       	sub	r27, r27
    186a:	51 e1       	ldi	r21, 0x11	; 17
    186c:	07 c0       	rjmp	.+14     	; 0x187c <__udivmodhi4_ep>

0000186e <__udivmodhi4_loop>:
    186e:	aa 1f       	adc	r26, r26
    1870:	bb 1f       	adc	r27, r27
    1872:	a6 17       	cp	r26, r22
    1874:	b7 07       	cpc	r27, r23
    1876:	10 f0       	brcs	.+4      	; 0x187c <__udivmodhi4_ep>
    1878:	a6 1b       	sub	r26, r22
    187a:	b7 0b       	sbc	r27, r23

0000187c <__udivmodhi4_ep>:
    187c:	88 1f       	adc	r24, r24
    187e:	99 1f       	adc	r25, r25
    1880:	5a 95       	dec	r21
    1882:	a9 f7       	brne	.-22     	; 0x186e <__udivmodhi4_loop>
    1884:	80 95       	com	r24
    1886:	90 95       	com	r25
    1888:	bc 01       	movw	r22, r24
    188a:	cd 01       	movw	r24, r26
    188c:	08 95       	ret

0000188e <__divmodhi4>:
    188e:	97 fb       	bst	r25, 7
    1890:	09 2e       	mov	r0, r25
    1892:	07 26       	eor	r0, r23
    1894:	0a d0       	rcall	.+20     	; 0x18aa <__divmodhi4_neg1>
    1896:	77 fd       	sbrc	r23, 7
    1898:	04 d0       	rcall	.+8      	; 0x18a2 <__divmodhi4_neg2>
    189a:	e5 df       	rcall	.-54     	; 0x1866 <__udivmodhi4>
    189c:	06 d0       	rcall	.+12     	; 0x18aa <__divmodhi4_neg1>
    189e:	00 20       	and	r0, r0
    18a0:	1a f4       	brpl	.+6      	; 0x18a8 <__divmodhi4_exit>

000018a2 <__divmodhi4_neg2>:
    18a2:	70 95       	com	r23
    18a4:	61 95       	neg	r22
    18a6:	7f 4f       	sbci	r23, 0xFF	; 255

000018a8 <__divmodhi4_exit>:
    18a8:	08 95       	ret

000018aa <__divmodhi4_neg1>:
    18aa:	f6 f7       	brtc	.-4      	; 0x18a8 <__divmodhi4_exit>
    18ac:	90 95       	com	r25
    18ae:	81 95       	neg	r24
    18b0:	9f 4f       	sbci	r25, 0xFF	; 255
    18b2:	08 95       	ret

000018b4 <__eerd_block_m328p>:
    18b4:	dc 01       	movw	r26, r24
    18b6:	cb 01       	movw	r24, r22

000018b8 <__eerd_blraw_m328p>:
    18b8:	fc 01       	movw	r30, r24
    18ba:	f9 99       	sbic	0x1f, 1	; 31
    18bc:	fe cf       	rjmp	.-4      	; 0x18ba <__eerd_blraw_m328p+0x2>
    18be:	06 c0       	rjmp	.+12     	; 0x18cc <__eerd_blraw_m328p+0x14>
    18c0:	f2 bd       	out	0x22, r31	; 34
    18c2:	e1 bd       	out	0x21, r30	; 33
    18c4:	f8 9a       	sbi	0x1f, 0	; 31
    18c6:	31 96       	adiw	r30, 0x01	; 1
    18c8:	00 b4       	in	r0, 0x20	; 32
    18ca:	0d 92       	st	X+, r0
    18cc:	41 50       	subi	r20, 0x01	; 1
    18ce:	50 40       	sbci	r21, 0x00	; 0
    18d0:	b8 f7       	brcc	.-18     	; 0x18c0 <__eerd_blraw_m328p+0x8>
    18d2:	08 95       	ret

000018d4 <__eerd_byte_m328p>:
    18d4:	f9 99       	sbic	0x1f, 1	; 31
    18d6:	fe cf       	rjmp	.-4      	; 0x18d4 <__eerd_byte_m328p>
    18d8:	92 bd       	out	0x22, r25	; 34
    18da:	81 bd       	out	0x21, r24	; 33
    18dc:	f8 9a       	sbi	0x1f, 0	; 31
    18de:	99 27       	eor	r25, r25
    18e0:	80 b5       	in	r24, 0x20	; 32
    18e2:	08 95       	ret

000018e4 <__eewr_byte_m328p>:
    18e4:	26 2f       	mov	r18, r22

000018e6 <__eewr_r18_m328p>:
    18e6:	f9 99       	sbic	0x1f, 1	; 31
    18e8:	fe cf       	rjmp	.-4      	; 0x18e6 <__eewr_r18_m328p>
    18ea:	1f ba       	out	0x1f, r1	; 31
    18ec:	92 bd       	out	0x22, r25	; 34
    18ee:	81 bd       	out	0x21, r24	; 33
    18f0:	20 bd       	out	0x20, r18	; 32
    18f2:	0f b6       	in	r0, 0x3f	; 63
    18f4:	f8 94       	cli
    18f6:	fa 9a       	sbi	0x1f, 2	; 31
    18f8:	f9 9a       	sbi	0x1f, 1	; 31
    18fa:	0f be       	out	0x3f, r0	; 63
    18fc:	01 96       	adiw	r24, 0x01	; 1
    18fe:	08 95       	ret

00001900 <_exit>:
    1900:	f8 94       	cli

00001902 <__stop_program>:
    1902:	ff cf       	rjmp	.-2      	; 0x1902 <__stop_program>
